
Keypad with Value manipulation.elf:     file format elf32-avr

Sections:
Idx Name          Size      VMA       LMA       File off  Algn
  0 .text         000010c6  00000000  00000000  00000074  2**1
                  CONTENTS, ALLOC, LOAD, READONLY, CODE
  1 .data         00000066  00800060  000010c6  0000113a  2**0
                  CONTENTS, ALLOC, LOAD, DATA
  2 .comment      0000005c  00000000  00000000  000011a0  2**0
                  CONTENTS, READONLY
  3 .note.gnu.avr.deviceinfo 0000003c  00000000  00000000  000011fc  2**2
                  CONTENTS, READONLY
  4 .debug_aranges 00000100  00000000  00000000  00001238  2**0
                  CONTENTS, READONLY, DEBUGGING
  5 .debug_info   00001f67  00000000  00000000  00001338  2**0
                  CONTENTS, READONLY, DEBUGGING
  6 .debug_abbrev 0000076f  00000000  00000000  0000329f  2**0
                  CONTENTS, READONLY, DEBUGGING
  7 .debug_line   00000ddc  00000000  00000000  00003a0e  2**0
                  CONTENTS, READONLY, DEBUGGING
  8 .debug_frame  000002e8  00000000  00000000  000047ec  2**2
                  CONTENTS, READONLY, DEBUGGING
  9 .debug_str    000004f7  00000000  00000000  00004ad4  2**0
                  CONTENTS, READONLY, DEBUGGING
 10 .debug_loc    000014a7  00000000  00000000  00004fcb  2**0
                  CONTENTS, READONLY, DEBUGGING
 11 .debug_ranges 000000f0  00000000  00000000  00006472  2**0
                  CONTENTS, READONLY, DEBUGGING

Disassembly of section .text:

00000000 <__vectors>:
       0:	0c 94 a2 00 	jmp	0x144	; 0x144 <__ctors_end>
       4:	0c 94 b7 00 	jmp	0x16e	; 0x16e <__bad_interrupt>
       8:	0c 94 11 03 	jmp	0x622	; 0x622 <__vector_2>
       c:	0c 94 b7 00 	jmp	0x16e	; 0x16e <__bad_interrupt>
      10:	0c 94 b7 00 	jmp	0x16e	; 0x16e <__bad_interrupt>
      14:	0c 94 b7 00 	jmp	0x16e	; 0x16e <__bad_interrupt>
      18:	0c 94 b7 00 	jmp	0x16e	; 0x16e <__bad_interrupt>
      1c:	0c 94 b7 00 	jmp	0x16e	; 0x16e <__bad_interrupt>
      20:	0c 94 b7 00 	jmp	0x16e	; 0x16e <__bad_interrupt>
      24:	0c 94 b7 00 	jmp	0x16e	; 0x16e <__bad_interrupt>
      28:	0c 94 b7 00 	jmp	0x16e	; 0x16e <__bad_interrupt>
      2c:	0c 94 b7 00 	jmp	0x16e	; 0x16e <__bad_interrupt>
      30:	0c 94 b7 00 	jmp	0x16e	; 0x16e <__bad_interrupt>
      34:	0c 94 b7 00 	jmp	0x16e	; 0x16e <__bad_interrupt>
      38:	0c 94 b7 00 	jmp	0x16e	; 0x16e <__bad_interrupt>
      3c:	0c 94 b7 00 	jmp	0x16e	; 0x16e <__bad_interrupt>
      40:	0c 94 b7 00 	jmp	0x16e	; 0x16e <__bad_interrupt>
      44:	0c 94 b7 00 	jmp	0x16e	; 0x16e <__bad_interrupt>
      48:	0c 94 b7 00 	jmp	0x16e	; 0x16e <__bad_interrupt>
      4c:	0c 94 b7 00 	jmp	0x16e	; 0x16e <__bad_interrupt>
      50:	0c 94 b7 00 	jmp	0x16e	; 0x16e <__bad_interrupt>
      54:	43 04       	cpc	r4, r3
      56:	03 04       	cpc	r0, r3
      58:	2a 04       	cpc	r2, r10
      5a:	0c 04       	cpc	r0, r12
      5c:	2a 04       	cpc	r2, r10
      5e:	2a 04       	cpc	r2, r10
      60:	2a 04       	cpc	r2, r10
      62:	24 04       	cpc	r2, r4
      64:	2a 04       	cpc	r2, r10
      66:	2a 04       	cpc	r2, r10
      68:	2a 04       	cpc	r2, r10
      6a:	2a 04       	cpc	r2, r10
      6c:	2a 04       	cpc	r2, r10
      6e:	2a 04       	cpc	r2, r10
      70:	2a 04       	cpc	r2, r10
      72:	2a 04       	cpc	r2, r10
      74:	fd 03       	fmulsu	r23, r21
      76:	06 04       	cpc	r0, r6
      78:	2a 04       	cpc	r2, r10
      7a:	0f 04       	cpc	r0, r15
      7c:	2a 04       	cpc	r2, r10
      7e:	2a 04       	cpc	r2, r10
      80:	2a 04       	cpc	r2, r10
      82:	15 04       	cpc	r1, r5
      84:	2a 04       	cpc	r2, r10
      86:	2a 04       	cpc	r2, r10
      88:	2a 04       	cpc	r2, r10
      8a:	2a 04       	cpc	r2, r10
      8c:	2a 04       	cpc	r2, r10
      8e:	2a 04       	cpc	r2, r10
      90:	2a 04       	cpc	r2, r10
      92:	2a 04       	cpc	r2, r10
      94:	2a 04       	cpc	r2, r10
      96:	2a 04       	cpc	r2, r10
      98:	2a 04       	cpc	r2, r10
      9a:	2a 04       	cpc	r2, r10
      9c:	2a 04       	cpc	r2, r10
      9e:	2a 04       	cpc	r2, r10
      a0:	2a 04       	cpc	r2, r10
      a2:	2a 04       	cpc	r2, r10
      a4:	2a 04       	cpc	r2, r10
      a6:	2a 04       	cpc	r2, r10
      a8:	2a 04       	cpc	r2, r10
      aa:	2a 04       	cpc	r2, r10
      ac:	2a 04       	cpc	r2, r10
      ae:	2a 04       	cpc	r2, r10
      b0:	2a 04       	cpc	r2, r10
      b2:	2a 04       	cpc	r2, r10
      b4:	00 04       	cpc	r0, r0
      b6:	09 04       	cpc	r0, r9
      b8:	2a 04       	cpc	r2, r10
      ba:	12 04       	cpc	r1, r2
      bc:	2a 04       	cpc	r2, r10
      be:	2a 04       	cpc	r2, r10
      c0:	2a 04       	cpc	r2, r10
      c2:	27 04       	cpc	r2, r7
      c4:	2a 04       	cpc	r2, r10
      c6:	2a 04       	cpc	r2, r10
      c8:	2a 04       	cpc	r2, r10
      ca:	2a 04       	cpc	r2, r10
      cc:	2a 04       	cpc	r2, r10
      ce:	2a 04       	cpc	r2, r10
      d0:	2a 04       	cpc	r2, r10
      d2:	2a 04       	cpc	r2, r10
      d4:	2a 04       	cpc	r2, r10
      d6:	2a 04       	cpc	r2, r10
      d8:	2a 04       	cpc	r2, r10
      da:	2a 04       	cpc	r2, r10
      dc:	2a 04       	cpc	r2, r10
      de:	2a 04       	cpc	r2, r10
      e0:	2a 04       	cpc	r2, r10
      e2:	2a 04       	cpc	r2, r10
      e4:	2a 04       	cpc	r2, r10
      e6:	2a 04       	cpc	r2, r10
      e8:	2a 04       	cpc	r2, r10
      ea:	2a 04       	cpc	r2, r10
      ec:	2a 04       	cpc	r2, r10
      ee:	2a 04       	cpc	r2, r10
      f0:	2a 04       	cpc	r2, r10
      f2:	2a 04       	cpc	r2, r10
      f4:	2a 04       	cpc	r2, r10
      f6:	2a 04       	cpc	r2, r10
      f8:	2a 04       	cpc	r2, r10
      fa:	2a 04       	cpc	r2, r10
      fc:	2a 04       	cpc	r2, r10
      fe:	2a 04       	cpc	r2, r10
     100:	2a 04       	cpc	r2, r10
     102:	2a 04       	cpc	r2, r10
     104:	2a 04       	cpc	r2, r10
     106:	2a 04       	cpc	r2, r10
     108:	2a 04       	cpc	r2, r10
     10a:	2a 04       	cpc	r2, r10
     10c:	2a 04       	cpc	r2, r10
     10e:	2a 04       	cpc	r2, r10
     110:	2a 04       	cpc	r2, r10
     112:	2a 04       	cpc	r2, r10
     114:	2a 04       	cpc	r2, r10
     116:	2a 04       	cpc	r2, r10
     118:	2a 04       	cpc	r2, r10
     11a:	2a 04       	cpc	r2, r10
     11c:	2a 04       	cpc	r2, r10
     11e:	2a 04       	cpc	r2, r10
     120:	2a 04       	cpc	r2, r10
     122:	2a 04       	cpc	r2, r10
     124:	2a 04       	cpc	r2, r10
     126:	2a 04       	cpc	r2, r10
     128:	2a 04       	cpc	r2, r10
     12a:	2a 04       	cpc	r2, r10
     12c:	2a 04       	cpc	r2, r10
     12e:	2a 04       	cpc	r2, r10
     130:	2a 04       	cpc	r2, r10
     132:	2a 04       	cpc	r2, r10
     134:	18 04       	cpc	r1, r8
     136:	1b 04       	cpc	r1, r11
     138:	2a 04       	cpc	r2, r10
     13a:	1e 04       	cpc	r1, r14
     13c:	2a 04       	cpc	r2, r10
     13e:	2a 04       	cpc	r2, r10
     140:	2a 04       	cpc	r2, r10
     142:	21 04       	cpc	r2, r1

00000144 <__ctors_end>:
     144:	11 24       	eor	r1, r1
     146:	1f be       	out	0x3f, r1	; 63
     148:	cf e5       	ldi	r28, 0x5F	; 95
     14a:	d8 e0       	ldi	r29, 0x08	; 8
     14c:	de bf       	out	0x3e, r29	; 62
     14e:	cd bf       	out	0x3d, r28	; 61

00000150 <__do_copy_data>:
     150:	10 e0       	ldi	r17, 0x00	; 0
     152:	a0 e6       	ldi	r26, 0x60	; 96
     154:	b0 e0       	ldi	r27, 0x00	; 0
     156:	e6 ec       	ldi	r30, 0xC6	; 198
     158:	f0 e1       	ldi	r31, 0x10	; 16
     15a:	02 c0       	rjmp	.+4      	; 0x160 <__do_copy_data+0x10>
     15c:	05 90       	lpm	r0, Z+
     15e:	0d 92       	st	X+, r0
     160:	a6 3c       	cpi	r26, 0xC6	; 198
     162:	b1 07       	cpc	r27, r17
     164:	d9 f7       	brne	.-10     	; 0x15c <__do_copy_data+0xc>
     166:	0e 94 f8 04 	call	0x9f0	; 0x9f0 <main>
     16a:	0c 94 61 08 	jmp	0x10c2	; 0x10c2 <_exit>

0000016e <__bad_interrupt>:
     16e:	0c 94 00 00 	jmp	0	; 0x0 <__vectors>

00000172 <pinChange>:
}

void Lcd4_Shift_Left()
{
	Lcd4_Cmd(0x01);
	Lcd4_Cmd(0x08);
     172:	67 2b       	or	r22, r23
     174:	09 f0       	breq	.+2      	; 0x178 <pinChange+0x6>
     176:	9f c0       	rjmp	.+318    	; 0x2b6 <pinChange+0x144>
     178:	00 97       	sbiw	r24, 0x00	; 0
     17a:	11 f4       	brne	.+4      	; 0x180 <pinChange+0xe>
     17c:	d8 98       	cbi	0x1b, 0	; 27
     17e:	08 95       	ret
     180:	81 30       	cpi	r24, 0x01	; 1
     182:	91 05       	cpc	r25, r1
     184:	11 f4       	brne	.+4      	; 0x18a <pinChange+0x18>
     186:	d9 98       	cbi	0x1b, 1	; 27
     188:	08 95       	ret
     18a:	82 30       	cpi	r24, 0x02	; 2
     18c:	91 05       	cpc	r25, r1
     18e:	11 f4       	brne	.+4      	; 0x194 <pinChange+0x22>
     190:	da 98       	cbi	0x1b, 2	; 27
     192:	08 95       	ret
     194:	83 30       	cpi	r24, 0x03	; 3
     196:	91 05       	cpc	r25, r1
     198:	11 f4       	brne	.+4      	; 0x19e <pinChange+0x2c>
     19a:	db 98       	cbi	0x1b, 3	; 27
     19c:	08 95       	ret
     19e:	84 30       	cpi	r24, 0x04	; 4
     1a0:	91 05       	cpc	r25, r1
     1a2:	11 f4       	brne	.+4      	; 0x1a8 <pinChange+0x36>
     1a4:	dc 98       	cbi	0x1b, 4	; 27
     1a6:	08 95       	ret
     1a8:	85 30       	cpi	r24, 0x05	; 5
     1aa:	91 05       	cpc	r25, r1
     1ac:	11 f4       	brne	.+4      	; 0x1b2 <pinChange+0x40>
     1ae:	dd 98       	cbi	0x1b, 5	; 27
     1b0:	08 95       	ret
     1b2:	86 30       	cpi	r24, 0x06	; 6
     1b4:	91 05       	cpc	r25, r1
     1b6:	11 f4       	brne	.+4      	; 0x1bc <pinChange+0x4a>
     1b8:	de 98       	cbi	0x1b, 6	; 27
     1ba:	08 95       	ret
     1bc:	87 30       	cpi	r24, 0x07	; 7
     1be:	91 05       	cpc	r25, r1
     1c0:	11 f4       	brne	.+4      	; 0x1c6 <pinChange+0x54>
     1c2:	df 98       	cbi	0x1b, 7	; 27
     1c4:	08 95       	ret
     1c6:	8a 30       	cpi	r24, 0x0A	; 10
     1c8:	91 05       	cpc	r25, r1
     1ca:	11 f4       	brne	.+4      	; 0x1d0 <pinChange+0x5e>
     1cc:	c0 98       	cbi	0x18, 0	; 24
     1ce:	08 95       	ret
     1d0:	8b 30       	cpi	r24, 0x0B	; 11
     1d2:	91 05       	cpc	r25, r1
     1d4:	11 f4       	brne	.+4      	; 0x1da <pinChange+0x68>
     1d6:	c1 98       	cbi	0x18, 1	; 24
     1d8:	08 95       	ret
     1da:	8c 30       	cpi	r24, 0x0C	; 12
     1dc:	91 05       	cpc	r25, r1
     1de:	11 f4       	brne	.+4      	; 0x1e4 <pinChange+0x72>
     1e0:	c2 98       	cbi	0x18, 2	; 24
     1e2:	08 95       	ret
     1e4:	8d 30       	cpi	r24, 0x0D	; 13
     1e6:	91 05       	cpc	r25, r1
     1e8:	11 f4       	brne	.+4      	; 0x1ee <pinChange+0x7c>
     1ea:	c3 98       	cbi	0x18, 3	; 24
     1ec:	08 95       	ret
     1ee:	8e 30       	cpi	r24, 0x0E	; 14
     1f0:	91 05       	cpc	r25, r1
     1f2:	11 f4       	brne	.+4      	; 0x1f8 <pinChange+0x86>
     1f4:	c4 98       	cbi	0x18, 4	; 24
     1f6:	08 95       	ret
     1f8:	8f 30       	cpi	r24, 0x0F	; 15
     1fa:	91 05       	cpc	r25, r1
     1fc:	11 f4       	brne	.+4      	; 0x202 <pinChange+0x90>
     1fe:	c5 98       	cbi	0x18, 5	; 24
     200:	08 95       	ret
     202:	80 31       	cpi	r24, 0x10	; 16
     204:	91 05       	cpc	r25, r1
     206:	11 f4       	brne	.+4      	; 0x20c <pinChange+0x9a>
     208:	c6 98       	cbi	0x18, 6	; 24
     20a:	08 95       	ret
     20c:	81 31       	cpi	r24, 0x11	; 17
     20e:	91 05       	cpc	r25, r1
     210:	11 f4       	brne	.+4      	; 0x216 <pinChange+0xa4>
     212:	c7 98       	cbi	0x18, 7	; 24
     214:	08 95       	ret
     216:	84 31       	cpi	r24, 0x14	; 20
     218:	91 05       	cpc	r25, r1
     21a:	11 f4       	brne	.+4      	; 0x220 <pinChange+0xae>
     21c:	a8 98       	cbi	0x15, 0	; 21
     21e:	08 95       	ret
     220:	85 31       	cpi	r24, 0x15	; 21
     222:	91 05       	cpc	r25, r1
     224:	11 f4       	brne	.+4      	; 0x22a <pinChange+0xb8>
     226:	a9 98       	cbi	0x15, 1	; 21
     228:	08 95       	ret
     22a:	86 31       	cpi	r24, 0x16	; 22
     22c:	91 05       	cpc	r25, r1
     22e:	11 f4       	brne	.+4      	; 0x234 <pinChange+0xc2>
     230:	aa 98       	cbi	0x15, 2	; 21
     232:	08 95       	ret
     234:	87 31       	cpi	r24, 0x17	; 23
     236:	91 05       	cpc	r25, r1
     238:	11 f4       	brne	.+4      	; 0x23e <pinChange+0xcc>
     23a:	ab 98       	cbi	0x15, 3	; 21
     23c:	08 95       	ret
     23e:	88 31       	cpi	r24, 0x18	; 24
     240:	91 05       	cpc	r25, r1
     242:	11 f4       	brne	.+4      	; 0x248 <pinChange+0xd6>
     244:	ac 98       	cbi	0x15, 4	; 21
     246:	08 95       	ret
     248:	89 31       	cpi	r24, 0x19	; 25
     24a:	91 05       	cpc	r25, r1
     24c:	11 f4       	brne	.+4      	; 0x252 <pinChange+0xe0>
     24e:	ad 98       	cbi	0x15, 5	; 21
     250:	08 95       	ret
     252:	8a 31       	cpi	r24, 0x1A	; 26
     254:	91 05       	cpc	r25, r1
     256:	11 f4       	brne	.+4      	; 0x25c <pinChange+0xea>
     258:	ae 98       	cbi	0x15, 6	; 21
     25a:	08 95       	ret
     25c:	8b 31       	cpi	r24, 0x1B	; 27
     25e:	91 05       	cpc	r25, r1
     260:	11 f4       	brne	.+4      	; 0x266 <pinChange+0xf4>
     262:	af 98       	cbi	0x15, 7	; 21
     264:	08 95       	ret
     266:	8e 31       	cpi	r24, 0x1E	; 30
     268:	91 05       	cpc	r25, r1
     26a:	11 f4       	brne	.+4      	; 0x270 <pinChange+0xfe>
     26c:	90 98       	cbi	0x12, 0	; 18
     26e:	08 95       	ret
     270:	8f 31       	cpi	r24, 0x1F	; 31
     272:	91 05       	cpc	r25, r1
     274:	11 f4       	brne	.+4      	; 0x27a <pinChange+0x108>
     276:	91 98       	cbi	0x12, 1	; 18
     278:	08 95       	ret
     27a:	80 32       	cpi	r24, 0x20	; 32
     27c:	91 05       	cpc	r25, r1
     27e:	11 f4       	brne	.+4      	; 0x284 <pinChange+0x112>
     280:	92 98       	cbi	0x12, 2	; 18
     282:	08 95       	ret
     284:	81 32       	cpi	r24, 0x21	; 33
     286:	91 05       	cpc	r25, r1
     288:	11 f4       	brne	.+4      	; 0x28e <pinChange+0x11c>
     28a:	93 98       	cbi	0x12, 3	; 18
     28c:	08 95       	ret
     28e:	82 32       	cpi	r24, 0x22	; 34
     290:	91 05       	cpc	r25, r1
     292:	11 f4       	brne	.+4      	; 0x298 <pinChange+0x126>
     294:	94 98       	cbi	0x12, 4	; 18
     296:	08 95       	ret
     298:	83 32       	cpi	r24, 0x23	; 35
     29a:	91 05       	cpc	r25, r1
     29c:	11 f4       	brne	.+4      	; 0x2a2 <pinChange+0x130>
     29e:	95 98       	cbi	0x12, 5	; 18
     2a0:	08 95       	ret
     2a2:	84 32       	cpi	r24, 0x24	; 36
     2a4:	91 05       	cpc	r25, r1
     2a6:	11 f4       	brne	.+4      	; 0x2ac <pinChange+0x13a>
     2a8:	96 98       	cbi	0x12, 6	; 18
     2aa:	08 95       	ret
     2ac:	85 97       	sbiw	r24, 0x25	; 37
     2ae:	09 f0       	breq	.+2      	; 0x2b2 <pinChange+0x140>
     2b0:	9f c0       	rjmp	.+318    	; 0x3f0 <pinChange+0x27e>
     2b2:	97 98       	cbi	0x12, 7	; 18
     2b4:	08 95       	ret
     2b6:	00 97       	sbiw	r24, 0x00	; 0
     2b8:	11 f4       	brne	.+4      	; 0x2be <pinChange+0x14c>
     2ba:	d8 9a       	sbi	0x1b, 0	; 27
     2bc:	08 95       	ret
     2be:	81 30       	cpi	r24, 0x01	; 1
     2c0:	91 05       	cpc	r25, r1
     2c2:	11 f4       	brne	.+4      	; 0x2c8 <pinChange+0x156>
     2c4:	d9 9a       	sbi	0x1b, 1	; 27
     2c6:	08 95       	ret
     2c8:	82 30       	cpi	r24, 0x02	; 2
     2ca:	91 05       	cpc	r25, r1
     2cc:	11 f4       	brne	.+4      	; 0x2d2 <pinChange+0x160>
     2ce:	da 9a       	sbi	0x1b, 2	; 27
     2d0:	08 95       	ret
     2d2:	83 30       	cpi	r24, 0x03	; 3
     2d4:	91 05       	cpc	r25, r1
     2d6:	11 f4       	brne	.+4      	; 0x2dc <pinChange+0x16a>
     2d8:	db 9a       	sbi	0x1b, 3	; 27
     2da:	08 95       	ret
     2dc:	84 30       	cpi	r24, 0x04	; 4
     2de:	91 05       	cpc	r25, r1
     2e0:	11 f4       	brne	.+4      	; 0x2e6 <pinChange+0x174>
     2e2:	dc 9a       	sbi	0x1b, 4	; 27
     2e4:	08 95       	ret
     2e6:	85 30       	cpi	r24, 0x05	; 5
     2e8:	91 05       	cpc	r25, r1
     2ea:	11 f4       	brne	.+4      	; 0x2f0 <pinChange+0x17e>
     2ec:	dd 9a       	sbi	0x1b, 5	; 27
     2ee:	08 95       	ret
     2f0:	86 30       	cpi	r24, 0x06	; 6
     2f2:	91 05       	cpc	r25, r1
     2f4:	11 f4       	brne	.+4      	; 0x2fa <pinChange+0x188>
     2f6:	de 9a       	sbi	0x1b, 6	; 27
     2f8:	08 95       	ret
     2fa:	87 30       	cpi	r24, 0x07	; 7
     2fc:	91 05       	cpc	r25, r1
     2fe:	11 f4       	brne	.+4      	; 0x304 <pinChange+0x192>
     300:	df 9a       	sbi	0x1b, 7	; 27
     302:	08 95       	ret
     304:	8a 30       	cpi	r24, 0x0A	; 10
     306:	91 05       	cpc	r25, r1
     308:	11 f4       	brne	.+4      	; 0x30e <pinChange+0x19c>
     30a:	c0 9a       	sbi	0x18, 0	; 24
     30c:	08 95       	ret
     30e:	8b 30       	cpi	r24, 0x0B	; 11
     310:	91 05       	cpc	r25, r1
     312:	11 f4       	brne	.+4      	; 0x318 <pinChange+0x1a6>
     314:	c1 9a       	sbi	0x18, 1	; 24
     316:	08 95       	ret
     318:	8c 30       	cpi	r24, 0x0C	; 12
     31a:	91 05       	cpc	r25, r1
     31c:	11 f4       	brne	.+4      	; 0x322 <pinChange+0x1b0>
     31e:	c2 9a       	sbi	0x18, 2	; 24
     320:	08 95       	ret
     322:	8d 30       	cpi	r24, 0x0D	; 13
     324:	91 05       	cpc	r25, r1
     326:	11 f4       	brne	.+4      	; 0x32c <pinChange+0x1ba>
     328:	c3 9a       	sbi	0x18, 3	; 24
     32a:	08 95       	ret
     32c:	8e 30       	cpi	r24, 0x0E	; 14
     32e:	91 05       	cpc	r25, r1
     330:	11 f4       	brne	.+4      	; 0x336 <pinChange+0x1c4>
     332:	c4 9a       	sbi	0x18, 4	; 24
     334:	08 95       	ret
     336:	8f 30       	cpi	r24, 0x0F	; 15
     338:	91 05       	cpc	r25, r1
     33a:	11 f4       	brne	.+4      	; 0x340 <pinChange+0x1ce>
     33c:	c5 9a       	sbi	0x18, 5	; 24
     33e:	08 95       	ret
     340:	80 31       	cpi	r24, 0x10	; 16
     342:	91 05       	cpc	r25, r1
     344:	11 f4       	brne	.+4      	; 0x34a <pinChange+0x1d8>
     346:	c6 9a       	sbi	0x18, 6	; 24
     348:	08 95       	ret
     34a:	81 31       	cpi	r24, 0x11	; 17
     34c:	91 05       	cpc	r25, r1
     34e:	11 f4       	brne	.+4      	; 0x354 <pinChange+0x1e2>
     350:	c7 9a       	sbi	0x18, 7	; 24
     352:	08 95       	ret
     354:	84 31       	cpi	r24, 0x14	; 20
     356:	91 05       	cpc	r25, r1
     358:	11 f4       	brne	.+4      	; 0x35e <pinChange+0x1ec>
     35a:	a8 9a       	sbi	0x15, 0	; 21
     35c:	08 95       	ret
     35e:	85 31       	cpi	r24, 0x15	; 21
     360:	91 05       	cpc	r25, r1
     362:	11 f4       	brne	.+4      	; 0x368 <pinChange+0x1f6>
     364:	a9 9a       	sbi	0x15, 1	; 21
     366:	08 95       	ret
     368:	86 31       	cpi	r24, 0x16	; 22
     36a:	91 05       	cpc	r25, r1
     36c:	11 f4       	brne	.+4      	; 0x372 <pinChange+0x200>
     36e:	aa 9a       	sbi	0x15, 2	; 21
     370:	08 95       	ret
     372:	87 31       	cpi	r24, 0x17	; 23
     374:	91 05       	cpc	r25, r1
     376:	11 f4       	brne	.+4      	; 0x37c <pinChange+0x20a>
     378:	ab 9a       	sbi	0x15, 3	; 21
     37a:	08 95       	ret
     37c:	88 31       	cpi	r24, 0x18	; 24
     37e:	91 05       	cpc	r25, r1
     380:	11 f4       	brne	.+4      	; 0x386 <pinChange+0x214>
     382:	ac 9a       	sbi	0x15, 4	; 21
     384:	08 95       	ret
     386:	89 31       	cpi	r24, 0x19	; 25
     388:	91 05       	cpc	r25, r1
     38a:	11 f4       	brne	.+4      	; 0x390 <pinChange+0x21e>
     38c:	ad 9a       	sbi	0x15, 5	; 21
     38e:	08 95       	ret
     390:	8a 31       	cpi	r24, 0x1A	; 26
     392:	91 05       	cpc	r25, r1
     394:	11 f4       	brne	.+4      	; 0x39a <pinChange+0x228>
     396:	ae 9a       	sbi	0x15, 6	; 21
     398:	08 95       	ret
     39a:	8b 31       	cpi	r24, 0x1B	; 27
     39c:	91 05       	cpc	r25, r1
     39e:	11 f4       	brne	.+4      	; 0x3a4 <pinChange+0x232>
     3a0:	af 9a       	sbi	0x15, 7	; 21
     3a2:	08 95       	ret
     3a4:	8e 31       	cpi	r24, 0x1E	; 30
     3a6:	91 05       	cpc	r25, r1
     3a8:	11 f4       	brne	.+4      	; 0x3ae <pinChange+0x23c>
     3aa:	90 9a       	sbi	0x12, 0	; 18
     3ac:	08 95       	ret
     3ae:	8f 31       	cpi	r24, 0x1F	; 31
     3b0:	91 05       	cpc	r25, r1
     3b2:	11 f4       	brne	.+4      	; 0x3b8 <pinChange+0x246>
     3b4:	91 9a       	sbi	0x12, 1	; 18
     3b6:	08 95       	ret
     3b8:	80 32       	cpi	r24, 0x20	; 32
     3ba:	91 05       	cpc	r25, r1
     3bc:	11 f4       	brne	.+4      	; 0x3c2 <pinChange+0x250>
     3be:	92 9a       	sbi	0x12, 2	; 18
     3c0:	08 95       	ret
     3c2:	81 32       	cpi	r24, 0x21	; 33
     3c4:	91 05       	cpc	r25, r1
     3c6:	11 f4       	brne	.+4      	; 0x3cc <pinChange+0x25a>
     3c8:	93 9a       	sbi	0x12, 3	; 18
     3ca:	08 95       	ret
     3cc:	82 32       	cpi	r24, 0x22	; 34
     3ce:	91 05       	cpc	r25, r1
     3d0:	11 f4       	brne	.+4      	; 0x3d6 <pinChange+0x264>
     3d2:	94 9a       	sbi	0x12, 4	; 18
     3d4:	08 95       	ret
     3d6:	83 32       	cpi	r24, 0x23	; 35
     3d8:	91 05       	cpc	r25, r1
     3da:	11 f4       	brne	.+4      	; 0x3e0 <pinChange+0x26e>
     3dc:	95 9a       	sbi	0x12, 5	; 18
     3de:	08 95       	ret
     3e0:	84 32       	cpi	r24, 0x24	; 36
     3e2:	91 05       	cpc	r25, r1
     3e4:	11 f4       	brne	.+4      	; 0x3ea <pinChange+0x278>
     3e6:	96 9a       	sbi	0x12, 6	; 18
     3e8:	08 95       	ret
     3ea:	85 97       	sbiw	r24, 0x25	; 37
     3ec:	09 f4       	brne	.+2      	; 0x3f0 <pinChange+0x27e>
     3ee:	97 9a       	sbi	0x12, 7	; 18
     3f0:	08 95       	ret

000003f2 <Lcd4_Port>:
     3f2:	cf 93       	push	r28
     3f4:	c8 2f       	mov	r28, r24
     3f6:	80 ff       	sbrs	r24, 0
     3f8:	07 c0       	rjmp	.+14     	; 0x408 <__LOCK_REGION_LENGTH__+0x8>
     3fa:	61 e0       	ldi	r22, 0x01	; 1
     3fc:	70 e0       	ldi	r23, 0x00	; 0
     3fe:	82 e2       	ldi	r24, 0x22	; 34
     400:	90 e0       	ldi	r25, 0x00	; 0
     402:	0e 94 b9 00 	call	0x172	; 0x172 <pinChange>
     406:	06 c0       	rjmp	.+12     	; 0x414 <__LOCK_REGION_LENGTH__+0x14>
     408:	60 e0       	ldi	r22, 0x00	; 0
     40a:	70 e0       	ldi	r23, 0x00	; 0
     40c:	82 e2       	ldi	r24, 0x22	; 34
     40e:	90 e0       	ldi	r25, 0x00	; 0
     410:	0e 94 b9 00 	call	0x172	; 0x172 <pinChange>
     414:	c1 ff       	sbrs	r28, 1
     416:	07 c0       	rjmp	.+14     	; 0x426 <__LOCK_REGION_LENGTH__+0x26>
     418:	61 e0       	ldi	r22, 0x01	; 1
     41a:	70 e0       	ldi	r23, 0x00	; 0
     41c:	83 e2       	ldi	r24, 0x23	; 35
     41e:	90 e0       	ldi	r25, 0x00	; 0
     420:	0e 94 b9 00 	call	0x172	; 0x172 <pinChange>
     424:	06 c0       	rjmp	.+12     	; 0x432 <__LOCK_REGION_LENGTH__+0x32>
     426:	60 e0       	ldi	r22, 0x00	; 0
     428:	70 e0       	ldi	r23, 0x00	; 0
     42a:	83 e2       	ldi	r24, 0x23	; 35
     42c:	90 e0       	ldi	r25, 0x00	; 0
     42e:	0e 94 b9 00 	call	0x172	; 0x172 <pinChange>
     432:	c2 ff       	sbrs	r28, 2
     434:	07 c0       	rjmp	.+14     	; 0x444 <__LOCK_REGION_LENGTH__+0x44>
     436:	61 e0       	ldi	r22, 0x01	; 1
     438:	70 e0       	ldi	r23, 0x00	; 0
     43a:	84 e2       	ldi	r24, 0x24	; 36
     43c:	90 e0       	ldi	r25, 0x00	; 0
     43e:	0e 94 b9 00 	call	0x172	; 0x172 <pinChange>
     442:	06 c0       	rjmp	.+12     	; 0x450 <__LOCK_REGION_LENGTH__+0x50>
     444:	60 e0       	ldi	r22, 0x00	; 0
     446:	70 e0       	ldi	r23, 0x00	; 0
     448:	84 e2       	ldi	r24, 0x24	; 36
     44a:	90 e0       	ldi	r25, 0x00	; 0
     44c:	0e 94 b9 00 	call	0x172	; 0x172 <pinChange>
     450:	c3 ff       	sbrs	r28, 3
     452:	07 c0       	rjmp	.+14     	; 0x462 <__LOCK_REGION_LENGTH__+0x62>
     454:	61 e0       	ldi	r22, 0x01	; 1
     456:	70 e0       	ldi	r23, 0x00	; 0
     458:	85 e2       	ldi	r24, 0x25	; 37
     45a:	90 e0       	ldi	r25, 0x00	; 0
     45c:	0e 94 b9 00 	call	0x172	; 0x172 <pinChange>
     460:	06 c0       	rjmp	.+12     	; 0x46e <__LOCK_REGION_LENGTH__+0x6e>
     462:	60 e0       	ldi	r22, 0x00	; 0
     464:	70 e0       	ldi	r23, 0x00	; 0
     466:	85 e2       	ldi	r24, 0x25	; 37
     468:	90 e0       	ldi	r25, 0x00	; 0
     46a:	0e 94 b9 00 	call	0x172	; 0x172 <pinChange>
     46e:	cf 91       	pop	r28
     470:	08 95       	ret

00000472 <Lcd4_Cmd>:
     472:	cf 93       	push	r28
     474:	c8 2f       	mov	r28, r24
     476:	60 e0       	ldi	r22, 0x00	; 0
     478:	70 e0       	ldi	r23, 0x00	; 0
     47a:	8a e1       	ldi	r24, 0x1A	; 26
     47c:	90 e0       	ldi	r25, 0x00	; 0
     47e:	0e 94 b9 00 	call	0x172	; 0x172 <pinChange>
     482:	8c 2f       	mov	r24, r28
     484:	0e 94 f9 01 	call	0x3f2	; 0x3f2 <Lcd4_Port>
     488:	61 e0       	ldi	r22, 0x01	; 1
     48a:	70 e0       	ldi	r23, 0x00	; 0
     48c:	8b e1       	ldi	r24, 0x1B	; 27
     48e:	90 e0       	ldi	r25, 0x00	; 0
     490:	0e 94 b9 00 	call	0x172	; 0x172 <pinChange>
     494:	8f e9       	ldi	r24, 0x9F	; 159
     496:	9f e0       	ldi	r25, 0x0F	; 15
     498:	01 97       	sbiw	r24, 0x01	; 1
     49a:	f1 f7       	brne	.-4      	; 0x498 <Lcd4_Cmd+0x26>
     49c:	00 c0       	rjmp	.+0      	; 0x49e <Lcd4_Cmd+0x2c>
     49e:	00 00       	nop
     4a0:	60 e0       	ldi	r22, 0x00	; 0
     4a2:	70 e0       	ldi	r23, 0x00	; 0
     4a4:	8b e1       	ldi	r24, 0x1B	; 27
     4a6:	90 e0       	ldi	r25, 0x00	; 0
     4a8:	0e 94 b9 00 	call	0x172	; 0x172 <pinChange>
     4ac:	8f e9       	ldi	r24, 0x9F	; 159
     4ae:	9f e0       	ldi	r25, 0x0F	; 15
     4b0:	01 97       	sbiw	r24, 0x01	; 1
     4b2:	f1 f7       	brne	.-4      	; 0x4b0 <Lcd4_Cmd+0x3e>
     4b4:	00 c0       	rjmp	.+0      	; 0x4b6 <Lcd4_Cmd+0x44>
     4b6:	00 00       	nop
     4b8:	cf 91       	pop	r28
     4ba:	08 95       	ret

000004bc <Lcd4_Clear>:
     4bc:	80 e0       	ldi	r24, 0x00	; 0
     4be:	0e 94 39 02 	call	0x472	; 0x472 <Lcd4_Cmd>
     4c2:	81 e0       	ldi	r24, 0x01	; 1
     4c4:	0e 94 39 02 	call	0x472	; 0x472 <Lcd4_Cmd>
     4c8:	08 95       	ret

000004ca <Lcd4_Set_Cursor>:
     4ca:	cf 93       	push	r28
     4cc:	c6 2f       	mov	r28, r22
     4ce:	81 30       	cpi	r24, 0x01	; 1
     4d0:	59 f4       	brne	.+22     	; 0x4e8 <Lcd4_Set_Cursor+0x1e>
     4d2:	80 e8       	ldi	r24, 0x80	; 128
     4d4:	86 0f       	add	r24, r22
     4d6:	82 95       	swap	r24
     4d8:	8f 70       	andi	r24, 0x0F	; 15
     4da:	0e 94 39 02 	call	0x472	; 0x472 <Lcd4_Cmd>
     4de:	8c 2f       	mov	r24, r28
     4e0:	8f 70       	andi	r24, 0x0F	; 15
     4e2:	0e 94 39 02 	call	0x472	; 0x472 <Lcd4_Cmd>
     4e6:	0c c0       	rjmp	.+24     	; 0x500 <Lcd4_Set_Cursor+0x36>
     4e8:	82 30       	cpi	r24, 0x02	; 2
     4ea:	51 f4       	brne	.+20     	; 0x500 <Lcd4_Set_Cursor+0x36>
     4ec:	80 ec       	ldi	r24, 0xC0	; 192
     4ee:	86 0f       	add	r24, r22
     4f0:	82 95       	swap	r24
     4f2:	8f 70       	andi	r24, 0x0F	; 15
     4f4:	0e 94 39 02 	call	0x472	; 0x472 <Lcd4_Cmd>
     4f8:	8c 2f       	mov	r24, r28
     4fa:	8f 70       	andi	r24, 0x0F	; 15
     4fc:	0e 94 39 02 	call	0x472	; 0x472 <Lcd4_Cmd>
     500:	cf 91       	pop	r28
     502:	08 95       	ret

00000504 <Lcd4_Init>:
     504:	80 e0       	ldi	r24, 0x00	; 0
     506:	0e 94 f9 01 	call	0x3f2	; 0x3f2 <Lcd4_Port>
     50a:	2f ef       	ldi	r18, 0xFF	; 255
     50c:	89 ef       	ldi	r24, 0xF9	; 249
     50e:	90 e0       	ldi	r25, 0x00	; 0
     510:	21 50       	subi	r18, 0x01	; 1
     512:	80 40       	sbci	r24, 0x00	; 0
     514:	90 40       	sbci	r25, 0x00	; 0
     516:	e1 f7       	brne	.-8      	; 0x510 <Lcd4_Init+0xc>
     518:	00 c0       	rjmp	.+0      	; 0x51a <Lcd4_Init+0x16>
     51a:	00 00       	nop
     51c:	83 e0       	ldi	r24, 0x03	; 3
     51e:	0e 94 39 02 	call	0x472	; 0x472 <Lcd4_Cmd>
     522:	8f e1       	ldi	r24, 0x1F	; 31
     524:	9e e4       	ldi	r25, 0x4E	; 78
     526:	01 97       	sbiw	r24, 0x01	; 1
     528:	f1 f7       	brne	.-4      	; 0x526 <Lcd4_Init+0x22>
     52a:	00 c0       	rjmp	.+0      	; 0x52c <Lcd4_Init+0x28>
     52c:	00 00       	nop
     52e:	83 e0       	ldi	r24, 0x03	; 3
     530:	0e 94 39 02 	call	0x472	; 0x472 <Lcd4_Cmd>
     534:	8f ed       	ldi	r24, 0xDF	; 223
     536:	9b ea       	ldi	r25, 0xAB	; 171
     538:	01 97       	sbiw	r24, 0x01	; 1
     53a:	f1 f7       	brne	.-4      	; 0x538 <Lcd4_Init+0x34>
     53c:	00 c0       	rjmp	.+0      	; 0x53e <Lcd4_Init+0x3a>
     53e:	00 00       	nop
     540:	83 e0       	ldi	r24, 0x03	; 3
     542:	0e 94 39 02 	call	0x472	; 0x472 <Lcd4_Cmd>
     546:	82 e0       	ldi	r24, 0x02	; 2
     548:	0e 94 39 02 	call	0x472	; 0x472 <Lcd4_Cmd>
     54c:	82 e0       	ldi	r24, 0x02	; 2
     54e:	0e 94 39 02 	call	0x472	; 0x472 <Lcd4_Cmd>
     552:	88 e0       	ldi	r24, 0x08	; 8
     554:	0e 94 39 02 	call	0x472	; 0x472 <Lcd4_Cmd>
     558:	80 e0       	ldi	r24, 0x00	; 0
     55a:	0e 94 39 02 	call	0x472	; 0x472 <Lcd4_Cmd>
     55e:	8c e0       	ldi	r24, 0x0C	; 12
     560:	0e 94 39 02 	call	0x472	; 0x472 <Lcd4_Cmd>
     564:	80 e0       	ldi	r24, 0x00	; 0
     566:	0e 94 39 02 	call	0x472	; 0x472 <Lcd4_Cmd>
     56a:	86 e0       	ldi	r24, 0x06	; 6
     56c:	0e 94 39 02 	call	0x472	; 0x472 <Lcd4_Cmd>
     570:	08 95       	ret

00000572 <Lcd4_Write_Char>:
     572:	cf 93       	push	r28
     574:	c8 2f       	mov	r28, r24
     576:	61 e0       	ldi	r22, 0x01	; 1
     578:	70 e0       	ldi	r23, 0x00	; 0
     57a:	8a e1       	ldi	r24, 0x1A	; 26
     57c:	90 e0       	ldi	r25, 0x00	; 0
     57e:	0e 94 b9 00 	call	0x172	; 0x172 <pinChange>
     582:	8c 2f       	mov	r24, r28
     584:	82 95       	swap	r24
     586:	8f 70       	andi	r24, 0x0F	; 15
     588:	0e 94 f9 01 	call	0x3f2	; 0x3f2 <Lcd4_Port>
     58c:	61 e0       	ldi	r22, 0x01	; 1
     58e:	70 e0       	ldi	r23, 0x00	; 0
     590:	8b e1       	ldi	r24, 0x1B	; 27
     592:	90 e0       	ldi	r25, 0x00	; 0
     594:	0e 94 b9 00 	call	0x172	; 0x172 <pinChange>
     598:	8f e9       	ldi	r24, 0x9F	; 159
     59a:	9f e0       	ldi	r25, 0x0F	; 15
     59c:	01 97       	sbiw	r24, 0x01	; 1
     59e:	f1 f7       	brne	.-4      	; 0x59c <Lcd4_Write_Char+0x2a>
     5a0:	00 c0       	rjmp	.+0      	; 0x5a2 <Lcd4_Write_Char+0x30>
     5a2:	00 00       	nop
     5a4:	60 e0       	ldi	r22, 0x00	; 0
     5a6:	70 e0       	ldi	r23, 0x00	; 0
     5a8:	8b e1       	ldi	r24, 0x1B	; 27
     5aa:	90 e0       	ldi	r25, 0x00	; 0
     5ac:	0e 94 b9 00 	call	0x172	; 0x172 <pinChange>
     5b0:	8f e9       	ldi	r24, 0x9F	; 159
     5b2:	9f e0       	ldi	r25, 0x0F	; 15
     5b4:	01 97       	sbiw	r24, 0x01	; 1
     5b6:	f1 f7       	brne	.-4      	; 0x5b4 <Lcd4_Write_Char+0x42>
     5b8:	00 c0       	rjmp	.+0      	; 0x5ba <Lcd4_Write_Char+0x48>
     5ba:	00 00       	nop
     5bc:	8c 2f       	mov	r24, r28
     5be:	8f 70       	andi	r24, 0x0F	; 15
     5c0:	0e 94 f9 01 	call	0x3f2	; 0x3f2 <Lcd4_Port>
     5c4:	61 e0       	ldi	r22, 0x01	; 1
     5c6:	70 e0       	ldi	r23, 0x00	; 0
     5c8:	8b e1       	ldi	r24, 0x1B	; 27
     5ca:	90 e0       	ldi	r25, 0x00	; 0
     5cc:	0e 94 b9 00 	call	0x172	; 0x172 <pinChange>
     5d0:	8f e9       	ldi	r24, 0x9F	; 159
     5d2:	9f e0       	ldi	r25, 0x0F	; 15
     5d4:	01 97       	sbiw	r24, 0x01	; 1
     5d6:	f1 f7       	brne	.-4      	; 0x5d4 <Lcd4_Write_Char+0x62>
     5d8:	00 c0       	rjmp	.+0      	; 0x5da <Lcd4_Write_Char+0x68>
     5da:	00 00       	nop
     5dc:	60 e0       	ldi	r22, 0x00	; 0
     5de:	70 e0       	ldi	r23, 0x00	; 0
     5e0:	8b e1       	ldi	r24, 0x1B	; 27
     5e2:	90 e0       	ldi	r25, 0x00	; 0
     5e4:	0e 94 b9 00 	call	0x172	; 0x172 <pinChange>
     5e8:	8f e9       	ldi	r24, 0x9F	; 159
     5ea:	9f e0       	ldi	r25, 0x0F	; 15
     5ec:	01 97       	sbiw	r24, 0x01	; 1
     5ee:	f1 f7       	brne	.-4      	; 0x5ec <Lcd4_Write_Char+0x7a>
     5f0:	00 c0       	rjmp	.+0      	; 0x5f2 <Lcd4_Write_Char+0x80>
     5f2:	00 00       	nop
     5f4:	cf 91       	pop	r28
     5f6:	08 95       	ret

000005f8 <Lcd4_Write_String>:
     5f8:	cf 93       	push	r28
     5fa:	df 93       	push	r29
     5fc:	ec 01       	movw	r28, r24
     5fe:	88 81       	ld	r24, Y
     600:	88 23       	and	r24, r24
     602:	31 f0       	breq	.+12     	; 0x610 <Lcd4_Write_String+0x18>
     604:	21 96       	adiw	r28, 0x01	; 1
     606:	0e 94 b9 02 	call	0x572	; 0x572 <Lcd4_Write_Char>
     60a:	89 91       	ld	r24, Y+
     60c:	81 11       	cpse	r24, r1
     60e:	fb cf       	rjmp	.-10     	; 0x606 <Lcd4_Write_String+0xe>
     610:	df 91       	pop	r29
     612:	cf 91       	pop	r28
     614:	08 95       	ret

00000616 <enable_INT1_interrupt>:
#include <stdbool.h>
#include "lcd.h"

void enable_INT1_interrupt()
{
	MCUCR=(1<<ISC2);
     616:	80 e4       	ldi	r24, 0x40	; 64
     618:	85 bf       	out	0x35, r24	; 53
	GICR=(1<<INT1);
     61a:	80 e8       	ldi	r24, 0x80	; 128
     61c:	8b bf       	out	0x3b, r24	; 59
	sei();
     61e:	78 94       	sei
     620:	08 95       	ret

00000622 <__vector_2>:
}

ISR(INT1_vect){
     622:	1f 92       	push	r1
     624:	0f 92       	push	r0
     626:	0f b6       	in	r0, 0x3f	; 63
     628:	0f 92       	push	r0
     62a:	11 24       	eor	r1, r1
     62c:	2f 93       	push	r18
     62e:	3f 93       	push	r19
     630:	4f 93       	push	r20
     632:	5f 93       	push	r21
     634:	6f 93       	push	r22
     636:	7f 93       	push	r23
     638:	8f 93       	push	r24
     63a:	9f 93       	push	r25
     63c:	af 93       	push	r26
     63e:	bf 93       	push	r27
     640:	ef 93       	push	r30
     642:	ff 93       	push	r31
	Lcd4_Clear();
     644:	0e 94 5e 02 	call	0x4bc	; 0x4bc <Lcd4_Clear>
	Lcd4_Set_Cursor(1,1);
     648:	61 e0       	ldi	r22, 0x01	; 1
     64a:	81 e0       	ldi	r24, 0x01	; 1
     64c:	0e 94 65 02 	call	0x4ca	; 0x4ca <Lcd4_Set_Cursor>
	Lcd4_Write_String("Switch Pressed");
     650:	80 e6       	ldi	r24, 0x60	; 96
     652:	90 e0       	ldi	r25, 0x00	; 0
     654:	0e 94 fc 02 	call	0x5f8	; 0x5f8 <Lcd4_Write_String>
	#else
		//round up by default
		__ticks_dc = (uint32_t)(ceil(fabs(__tmp)));
	#endif

	__builtin_avr_delay_cycles(__ticks_dc);
     658:	2f ef       	ldi	r18, 0xFF	; 255
     65a:	89 e6       	ldi	r24, 0x69	; 105
     65c:	98 e1       	ldi	r25, 0x18	; 24
     65e:	21 50       	subi	r18, 0x01	; 1
     660:	80 40       	sbci	r24, 0x00	; 0
     662:	90 40       	sbci	r25, 0x00	; 0
     664:	e1 f7       	brne	.-8      	; 0x65e <__vector_2+0x3c>
     666:	00 c0       	rjmp	.+0      	; 0x668 <__vector_2+0x46>
     668:	00 00       	nop
	_delay_ms(500);
	Lcd4_Clear();
     66a:	0e 94 5e 02 	call	0x4bc	; 0x4bc <Lcd4_Clear>
}
     66e:	ff 91       	pop	r31
     670:	ef 91       	pop	r30
     672:	bf 91       	pop	r27
     674:	af 91       	pop	r26
     676:	9f 91       	pop	r25
     678:	8f 91       	pop	r24
     67a:	7f 91       	pop	r23
     67c:	6f 91       	pop	r22
     67e:	5f 91       	pop	r21
     680:	4f 91       	pop	r20
     682:	3f 91       	pop	r19
     684:	2f 91       	pop	r18
     686:	0f 90       	pop	r0
     688:	0f be       	out	0x3f, r0	; 63
     68a:	0f 90       	pop	r0
     68c:	1f 90       	pop	r1
     68e:	18 95       	reti

00000690 <Lcd4_EnterNumber>:
     690:	8f e9       	ldi	r24, 0x9F	; 159
     692:	9f e0       	ldi	r25, 0x0F	; 15
     694:	01 97       	sbiw	r24, 0x01	; 1
     696:	f1 f7       	brne	.-4      	; 0x694 <Lcd4_EnterNumber+0x4>
     698:	00 c0       	rjmp	.+0      	; 0x69a <Lcd4_EnterNumber+0xa>
     69a:	00 00       	nop
}

void Lcd4_EnterNumber()
{
	_delay_ms(1);
	Lcd4_Clear();
     69c:	0e 94 5e 02 	call	0x4bc	; 0x4bc <Lcd4_Clear>
	Lcd4_Set_Cursor(1,1);
     6a0:	61 e0       	ldi	r22, 0x01	; 1
     6a2:	81 e0       	ldi	r24, 0x01	; 1
     6a4:	0e 94 65 02 	call	0x4ca	; 0x4ca <Lcd4_Set_Cursor>
	Lcd4_Write_String("Enter a Number");
     6a8:	8f e6       	ldi	r24, 0x6F	; 111
     6aa:	90 e0       	ldi	r25, 0x00	; 0
     6ac:	0e 94 fc 02 	call	0x5f8	; 0x5f8 <Lcd4_Write_String>
     6b0:	8f e9       	ldi	r24, 0x9F	; 159
     6b2:	9f e0       	ldi	r25, 0x0F	; 15
     6b4:	01 97       	sbiw	r24, 0x01	; 1
     6b6:	f1 f7       	brne	.-4      	; 0x6b4 <Lcd4_EnterNumber+0x24>
     6b8:	00 c0       	rjmp	.+0      	; 0x6ba <Lcd4_EnterNumber+0x2a>
     6ba:	00 00       	nop
	_delay_ms(1);
	Lcd4_Set_Cursor(2,1);
     6bc:	61 e0       	ldi	r22, 0x01	; 1
     6be:	82 e0       	ldi	r24, 0x02	; 2
     6c0:	0e 94 65 02 	call	0x4ca	; 0x4ca <Lcd4_Set_Cursor>
     6c4:	08 95       	ret

000006c6 <Lcd4_Turn_On>:
}

void Lcd4_Turn_On(){
	PORTC |= (1<<PC0);
     6c6:	a8 9a       	sbi	0x15, 0	; 21
     6c8:	2f ef       	ldi	r18, 0xFF	; 255
     6ca:	80 e7       	ldi	r24, 0x70	; 112
     6cc:	92 e0       	ldi	r25, 0x02	; 2
     6ce:	21 50       	subi	r18, 0x01	; 1
     6d0:	80 40       	sbci	r24, 0x00	; 0
     6d2:	90 40       	sbci	r25, 0x00	; 0
     6d4:	e1 f7       	brne	.-8      	; 0x6ce <Lcd4_Turn_On+0x8>
     6d6:	00 c0       	rjmp	.+0      	; 0x6d8 <Lcd4_Turn_On+0x12>
     6d8:	00 00       	nop
     6da:	08 95       	ret

000006dc <Lcd4_Turn_Off>:
     6dc:	2f ef       	ldi	r18, 0xFF	; 255
     6de:	80 e7       	ldi	r24, 0x70	; 112
     6e0:	92 e0       	ldi	r25, 0x02	; 2
     6e2:	21 50       	subi	r18, 0x01	; 1
     6e4:	80 40       	sbci	r24, 0x00	; 0
     6e6:	90 40       	sbci	r25, 0x00	; 0
     6e8:	e1 f7       	brne	.-8      	; 0x6e2 <Lcd4_Turn_Off+0x6>
     6ea:	00 c0       	rjmp	.+0      	; 0x6ec <Lcd4_Turn_Off+0x10>
     6ec:	00 00       	nop
	_delay_ms(50);
}

void Lcd4_Turn_Off(){
	_delay_ms(50);
	PORTC =0x00;
     6ee:	15 ba       	out	0x15, r1	; 21
     6f0:	2f ef       	ldi	r18, 0xFF	; 255
     6f2:	80 e7       	ldi	r24, 0x70	; 112
     6f4:	92 e0       	ldi	r25, 0x02	; 2
     6f6:	21 50       	subi	r18, 0x01	; 1
     6f8:	80 40       	sbci	r24, 0x00	; 0
     6fa:	90 40       	sbci	r25, 0x00	; 0
     6fc:	e1 f7       	brne	.-8      	; 0x6f6 <Lcd4_Turn_Off+0x1a>
     6fe:	00 c0       	rjmp	.+0      	; 0x700 <Lcd4_Turn_Off+0x24>
     700:	00 00       	nop
     702:	08 95       	ret

00000704 <Lcd4_Write_Number>:
		
	}
	return Temp;
}

void Lcd4_Write_Number(int num){
     704:	0f 93       	push	r16
     706:	1f 93       	push	r17
     708:	cf 93       	push	r28
     70a:	df 93       	push	r29
     70c:	00 d0       	rcall	.+0      	; 0x70e <Lcd4_Write_Number+0xa>
     70e:	00 d0       	rcall	.+0      	; 0x710 <Lcd4_Write_Number+0xc>
     710:	1f 92       	push	r1
     712:	cd b7       	in	r28, 0x3d	; 61
     714:	de b7       	in	r29, 0x3e	; 62
	char val[5];
	switch(num){
     716:	8e 30       	cpi	r24, 0x0E	; 14
     718:	91 05       	cpc	r25, r1
     71a:	49 f0       	breq	.+18     	; 0x72e <Lcd4_Write_Number+0x2a>
     71c:	24 f4       	brge	.+8      	; 0x726 <Lcd4_Write_Number+0x22>
     71e:	8a 30       	cpi	r24, 0x0A	; 10
     720:	91 05       	cpc	r25, r1
     722:	2c f5       	brge	.+74     	; 0x76e <Lcd4_Write_Number+0x6a>
     724:	0e c0       	rjmp	.+28     	; 0x742 <Lcd4_Write_Number+0x3e>
     726:	8f 30       	cpi	r24, 0x0F	; 15
     728:	91 05       	cpc	r25, r1
     72a:	31 f0       	breq	.+12     	; 0x738 <Lcd4_Write_Number+0x34>
     72c:	0a c0       	rjmp	.+20     	; 0x742 <Lcd4_Write_Number+0x3e>
		case A: {break;}
		case B: {break;}
		case C: {break;}
		case Enter: {break;}
		case Star: {Lcd4_Write_String("*");	break;}
     72e:	8e e7       	ldi	r24, 0x7E	; 126
     730:	90 e0       	ldi	r25, 0x00	; 0
     732:	0e 94 fc 02 	call	0x5f8	; 0x5f8 <Lcd4_Write_String>
     736:	1b c0       	rjmp	.+54     	; 0x76e <Lcd4_Write_Number+0x6a>
		case Hash: {Lcd4_Write_String("#");	break;}
     738:	80 e8       	ldi	r24, 0x80	; 128
     73a:	90 e0       	ldi	r25, 0x00	; 0
     73c:	0e 94 fc 02 	call	0x5f8	; 0x5f8 <Lcd4_Write_String>
     740:	16 c0       	rjmp	.+44     	; 0x76e <Lcd4_Write_Number+0x6a>
		default: {
			sprintf(val,"%d", num);
     742:	9f 93       	push	r25
     744:	8f 93       	push	r24
     746:	82 e8       	ldi	r24, 0x82	; 130
     748:	90 e0       	ldi	r25, 0x00	; 0
     74a:	9f 93       	push	r25
     74c:	8f 93       	push	r24
     74e:	8e 01       	movw	r16, r28
     750:	0f 5f       	subi	r16, 0xFF	; 255
     752:	1f 4f       	sbci	r17, 0xFF	; 255
     754:	1f 93       	push	r17
     756:	0f 93       	push	r16
     758:	0e 94 77 05 	call	0xaee	; 0xaee <sprintf>
			Lcd4_Write_String(val);
     75c:	c8 01       	movw	r24, r16
     75e:	0e 94 fc 02 	call	0x5f8	; 0x5f8 <Lcd4_Write_String>
     762:	0f 90       	pop	r0
     764:	0f 90       	pop	r0
     766:	0f 90       	pop	r0
     768:	0f 90       	pop	r0
     76a:	0f 90       	pop	r0
     76c:	0f 90       	pop	r0
			}
	
}
		}
     76e:	0f 90       	pop	r0
     770:	0f 90       	pop	r0
     772:	0f 90       	pop	r0
     774:	0f 90       	pop	r0
     776:	0f 90       	pop	r0
     778:	df 91       	pop	r29
     77a:	cf 91       	pop	r28
     77c:	1f 91       	pop	r17
     77e:	0f 91       	pop	r16
     780:	08 95       	ret

00000782 <GetKeyPadInput>:
	_delay_ms(500);
	Lcd4_Clear();
}

int GetKeyPadInput()
{
     782:	0f 93       	push	r16
     784:	1f 93       	push	r17
     786:	cf 93       	push	r28
     788:	df 93       	push	r29
     78a:	cd b7       	in	r28, 0x3d	; 61
     78c:	de b7       	in	r29, 0x3e	; 62
     78e:	28 97       	sbiw	r28, 0x08	; 8
     790:	0f b6       	in	r0, 0x3f	; 63
     792:	f8 94       	cli
     794:	de bf       	out	0x3e, r29	; 62
     796:	0f be       	out	0x3f, r0	; 63
     798:	cd bf       	out	0x3d, r28	; 61
	int keypressed; int correctkey; int num = -1;
	while (num==-1){
	if (PINB!=0x0F){
     79a:	86 b3       	in	r24, 0x16	; 22
     79c:	8f 30       	cpi	r24, 0x0F	; 15
     79e:	19 f4       	brne	.+6      	; 0x7a6 <GetKeyPadInput+0x24>
     7a0:	86 b3       	in	r24, 0x16	; 22
     7a2:	8f 30       	cpi	r24, 0x0F	; 15
     7a4:	e9 f3       	breq	.-6      	; 0x7a0 <GetKeyPadInput+0x1e>
     7a6:	8f e1       	ldi	r24, 0x1F	; 31
     7a8:	9e e4       	ldi	r25, 0x4E	; 78
     7aa:	01 97       	sbiw	r24, 0x01	; 1
     7ac:	f1 f7       	brne	.-4      	; 0x7aa <GetKeyPadInput+0x28>
     7ae:	00 c0       	rjmp	.+0      	; 0x7b0 <GetKeyPadInput+0x2e>
     7b0:	00 00       	nop
		
		_delay_ms(5);
		keypressed = PINB;
     7b2:	e6 b3       	in	r30, 0x16	; 22
		//_delay_ms(1000);
		
		DDRB ^=0xFF;
     7b4:	87 b3       	in	r24, 0x17	; 23
     7b6:	80 95       	com	r24
     7b8:	87 bb       	out	0x17, r24	; 23
     7ba:	8f e9       	ldi	r24, 0x9F	; 159
     7bc:	9f e0       	ldi	r25, 0x0F	; 15
     7be:	01 97       	sbiw	r24, 0x01	; 1
     7c0:	f1 f7       	brne	.-4      	; 0x7be <GetKeyPadInput+0x3c>
     7c2:	00 c0       	rjmp	.+0      	; 0x7c4 <GetKeyPadInput+0x42>
     7c4:	00 00       	nop
		_delay_ms(1);
		PORTB ^= 0xFF;
     7c6:	88 b3       	in	r24, 0x18	; 24
     7c8:	80 95       	com	r24
     7ca:	88 bb       	out	0x18, r24	; 24
     7cc:	8f e9       	ldi	r24, 0x9F	; 159
     7ce:	9f e0       	ldi	r25, 0x0F	; 15
     7d0:	01 97       	sbiw	r24, 0x01	; 1
     7d2:	f1 f7       	brne	.-4      	; 0x7d0 <GetKeyPadInput+0x4e>
     7d4:	00 c0       	rjmp	.+0      	; 0x7d6 <GetKeyPadInput+0x54>
     7d6:	00 00       	nop
		
		//Lcd4_Clear();
		//Lcd4_Set_Cursor(1,1);
		//Lcd4_Write_String("Press again");
		//Lcd4_Set_Cursor(2,1);
		while (PINB==0xF0){}
     7d8:	86 b3       	in	r24, 0x16	; 22
     7da:	80 3f       	cpi	r24, 0xF0	; 240
     7dc:	e9 f3       	breq	.-6      	; 0x7d8 <GetKeyPadInput+0x56>
		
		keypressed |= PINB;
     7de:	86 b3       	in	r24, 0x16	; 22
     7e0:	e8 2b       	or	r30, r24
     7e2:	f0 e0       	ldi	r31, 0x00	; 0
		keypressed=~keypressed;
		
		switch (keypressed){
     7e4:	e0 95       	com	r30
     7e6:	f0 95       	com	r31
     7e8:	e1 51       	subi	r30, 0x11	; 17
     7ea:	ff 4f       	sbci	r31, 0xFF	; 255
     7ec:	e8 37       	cpi	r30, 0x78	; 120
     7ee:	f1 05       	cpc	r31, r1
     7f0:	88 f5       	brcc	.+98     	; 0x854 <GetKeyPadInput+0xd2>
     7f2:	e6 5d       	subi	r30, 0xD6	; 214
     7f4:	ff 4f       	sbci	r31, 0xFF	; 255
     7f6:	0c 94 71 05 	jmp	0xae2	; 0xae2 <__tablejump2__>
			case 0xff11: {num = 1;	break;}
			case 0xff21: {num = 2;	break;}
     7fa:	02 e0       	ldi	r16, 0x02	; 2
     7fc:	10 e0       	ldi	r17, 0x00	; 0
     7fe:	45 c0       	rjmp	.+138    	; 0x88a <__stack+0x2b>
			case 0xff41: {num = 3;	break;}
     800:	03 e0       	ldi	r16, 0x03	; 3
     802:	10 e0       	ldi	r17, 0x00	; 0
     804:	42 c0       	rjmp	.+132    	; 0x88a <__stack+0x2b>
			case 0xff12: {num = 4;	break;}
     806:	04 e0       	ldi	r16, 0x04	; 4
     808:	10 e0       	ldi	r17, 0x00	; 0
     80a:	3f c0       	rjmp	.+126    	; 0x88a <__stack+0x2b>
			case 0xff22: {num = 5;	break;}
     80c:	05 e0       	ldi	r16, 0x05	; 5
     80e:	10 e0       	ldi	r17, 0x00	; 0
     810:	3c c0       	rjmp	.+120    	; 0x88a <__stack+0x2b>
			case 0xff42: {num = 6;	break;}
     812:	06 e0       	ldi	r16, 0x06	; 6
     814:	10 e0       	ldi	r17, 0x00	; 0
     816:	39 c0       	rjmp	.+114    	; 0x88a <__stack+0x2b>
			case 0xff14: {num = 7;	break;}
     818:	07 e0       	ldi	r16, 0x07	; 7
     81a:	10 e0       	ldi	r17, 0x00	; 0
     81c:	36 c0       	rjmp	.+108    	; 0x88a <__stack+0x2b>
			case 0xff24: {num = 8;	break;}
     81e:	08 e0       	ldi	r16, 0x08	; 8
     820:	10 e0       	ldi	r17, 0x00	; 0
     822:	33 c0       	rjmp	.+102    	; 0x88a <__stack+0x2b>
			case 0xff44: {num = 9;	break;}
     824:	09 e0       	ldi	r16, 0x09	; 9
     826:	10 e0       	ldi	r17, 0x00	; 0
     828:	30 c0       	rjmp	.+96     	; 0x88a <__stack+0x2b>
			case 0xff28: {num = 0;	break;}
     82a:	00 e0       	ldi	r16, 0x00	; 0
     82c:	10 e0       	ldi	r17, 0x00	; 0
     82e:	2d c0       	rjmp	.+90     	; 0x88a <__stack+0x2b>
			case 0xff81: {num = A;	break;}
     830:	0a e0       	ldi	r16, 0x0A	; 10
     832:	10 e0       	ldi	r17, 0x00	; 0
     834:	2a c0       	rjmp	.+84     	; 0x88a <__stack+0x2b>
			case 0xff82: {num = B;	break;}
     836:	0b e0       	ldi	r16, 0x0B	; 11
     838:	10 e0       	ldi	r17, 0x00	; 0
     83a:	27 c0       	rjmp	.+78     	; 0x88a <__stack+0x2b>
			case 0xff84: {num = C;	break;}
     83c:	0c e0       	ldi	r16, 0x0C	; 12
     83e:	10 e0       	ldi	r17, 0x00	; 0
     840:	24 c0       	rjmp	.+72     	; 0x88a <__stack+0x2b>
			case 0xff88: {num = Enter;	break;}
     842:	0d e0       	ldi	r16, 0x0D	; 13
     844:	10 e0       	ldi	r17, 0x00	; 0
     846:	21 c0       	rjmp	.+66     	; 0x88a <__stack+0x2b>
			case 0xff18: {num = Star;	break;}
     848:	0e e0       	ldi	r16, 0x0E	; 14
     84a:	10 e0       	ldi	r17, 0x00	; 0
     84c:	1e c0       	rjmp	.+60     	; 0x88a <__stack+0x2b>
			case 0xff48: {num = Hash;	break;}
     84e:	0f e0       	ldi	r16, 0x0F	; 15
     850:	10 e0       	ldi	r17, 0x00	; 0
     852:	1b c0       	rjmp	.+54     	; 0x88a <__stack+0x2b>
			default: {
				char str[8];
				sprintf(str, "%x", correctkey);
     854:	1f 92       	push	r1
     856:	1f 92       	push	r1
     858:	85 e8       	ldi	r24, 0x85	; 133
     85a:	90 e0       	ldi	r25, 0x00	; 0
     85c:	9f 93       	push	r25
     85e:	8f 93       	push	r24
     860:	8e 01       	movw	r16, r28
     862:	0f 5f       	subi	r16, 0xFF	; 255
     864:	1f 4f       	sbci	r17, 0xFF	; 255
     866:	1f 93       	push	r17
     868:	0f 93       	push	r16
     86a:	0e 94 77 05 	call	0xaee	; 0xaee <sprintf>
				Lcd4_Write_String(str);
     86e:	c8 01       	movw	r24, r16
     870:	0e 94 fc 02 	call	0x5f8	; 0x5f8 <Lcd4_Write_String>
     874:	0f 90       	pop	r0
     876:	0f 90       	pop	r0
     878:	0f 90       	pop	r0
     87a:	0f 90       	pop	r0
     87c:	0f 90       	pop	r0
     87e:	0f 90       	pop	r0
				num = 99;
     880:	03 e6       	ldi	r16, 0x63	; 99
     882:	10 e0       	ldi	r17, 0x00	; 0
     884:	02 c0       	rjmp	.+4      	; 0x88a <__stack+0x2b>
		
		keypressed |= PINB;
		keypressed=~keypressed;
		
		switch (keypressed){
			case 0xff11: {num = 1;	break;}
     886:	01 e0       	ldi	r16, 0x01	; 1
     888:	10 e0       	ldi	r17, 0x00	; 0
     88a:	8f e9       	ldi	r24, 0x9F	; 159
     88c:	9f e0       	ldi	r25, 0x0F	; 15
     88e:	01 97       	sbiw	r24, 0x01	; 1
     890:	f1 f7       	brne	.-4      	; 0x88e <__stack+0x2f>
     892:	00 c0       	rjmp	.+0      	; 0x894 <__stack+0x35>
     894:	00 00       	nop
				break;
			}
			
	}_delay_ms(1);
	
	DDRB ^=0xFF;
     896:	87 b3       	in	r24, 0x17	; 23
     898:	80 95       	com	r24
     89a:	87 bb       	out	0x17, r24	; 23
     89c:	8f e9       	ldi	r24, 0x9F	; 159
     89e:	9f e0       	ldi	r25, 0x0F	; 15
     8a0:	01 97       	sbiw	r24, 0x01	; 1
     8a2:	f1 f7       	brne	.-4      	; 0x8a0 <__stack+0x41>
     8a4:	00 c0       	rjmp	.+0      	; 0x8a6 <__stack+0x47>
     8a6:	00 00       	nop
	_delay_ms(1);
	PORTB ^=0xFF;
     8a8:	88 b3       	in	r24, 0x18	; 24
     8aa:	80 95       	com	r24
     8ac:	88 bb       	out	0x18, r24	; 24
	Lcd4_Write_Number(num);
     8ae:	c8 01       	movw	r24, r16
     8b0:	0e 94 82 03 	call	0x704	; 0x704 <Lcd4_Write_Number>
     8b4:	9f ef       	ldi	r25, 0xFF	; 255
     8b6:	29 e6       	ldi	r18, 0x69	; 105
     8b8:	88 e1       	ldi	r24, 0x18	; 24
     8ba:	91 50       	subi	r25, 0x01	; 1
     8bc:	20 40       	sbci	r18, 0x00	; 0
     8be:	80 40       	sbci	r24, 0x00	; 0
     8c0:	e1 f7       	brne	.-8      	; 0x8ba <__stack+0x5b>
     8c2:	00 c0       	rjmp	.+0      	; 0x8c4 <__stack+0x65>
     8c4:	00 00       	nop

	}
			}

return num;
}
     8c6:	c8 01       	movw	r24, r16
     8c8:	28 96       	adiw	r28, 0x08	; 8
     8ca:	0f b6       	in	r0, 0x3f	; 63
     8cc:	f8 94       	cli
     8ce:	de bf       	out	0x3e, r29	; 62
     8d0:	0f be       	out	0x3f, r0	; 63
     8d2:	cd bf       	out	0x3d, r28	; 61
     8d4:	df 91       	pop	r29
     8d6:	cf 91       	pop	r28
     8d8:	1f 91       	pop	r17
     8da:	0f 91       	pop	r16
     8dc:	08 95       	ret

000008de <Get_Temperature>:
	_delay_ms(50);
	PORTC =0x00;
	_delay_ms(50);
}
int Get_Temperature()
{
     8de:	af 92       	push	r10
     8e0:	bf 92       	push	r11
     8e2:	cf 92       	push	r12
     8e4:	df 92       	push	r13
     8e6:	ef 92       	push	r14
     8e8:	ff 92       	push	r15
     8ea:	0f 93       	push	r16
     8ec:	1f 93       	push	r17
     8ee:	cf 93       	push	r28
     8f0:	df 93       	push	r29
	int factor = 1;
	int Temp = 0;
	int Input = -1;
	Lcd4_Turn_On();
     8f2:	0e 94 63 03 	call	0x6c6	; 0x6c6 <Lcd4_Turn_On>
	Lcd4_Clear();
     8f6:	0e 94 5e 02 	call	0x4bc	; 0x4bc <Lcd4_Clear>
	Lcd4_Set_Cursor(2,1);
     8fa:	61 e0       	ldi	r22, 0x01	; 1
     8fc:	82 e0       	ldi	r24, 0x02	; 2
     8fe:	0e 94 65 02 	call	0x4ca	; 0x4ca <Lcd4_Set_Cursor>
	Lcd4_Write_String("Press Enter");
     902:	88 e8       	ldi	r24, 0x88	; 136
     904:	90 e0       	ldi	r25, 0x00	; 0
     906:	0e 94 fc 02 	call	0x5f8	; 0x5f8 <Lcd4_Write_String>
	Lcd4_Set_Cursor(1,1);
     90a:	61 e0       	ldi	r22, 0x01	; 1
     90c:	81 e0       	ldi	r24, 0x01	; 1
     90e:	0e 94 65 02 	call	0x4ca	; 0x4ca <Lcd4_Set_Cursor>
	Lcd4_Write_String("Temp: ");
     912:	8d ea       	ldi	r24, 0xAD	; 173
     914:	90 e0       	ldi	r25, 0x00	; 0
     916:	0e 94 fc 02 	call	0x5f8	; 0x5f8 <Lcd4_Write_String>
	_delay_ms(50);
}
int Get_Temperature()
{
	int factor = 1;
	int Temp = 0;
     91a:	e1 2c       	mov	r14, r1
     91c:	f1 2c       	mov	r15, r1
	PORTC =0x00;
	_delay_ms(50);
}
int Get_Temperature()
{
	int factor = 1;
     91e:	c1 e0       	ldi	r28, 0x01	; 1
     920:	d0 e0       	ldi	r29, 0x00	; 0
			Lcd4_Clear();
			Lcd4_Set_Cursor(2,1);
			Lcd4_Write_String("Press Enter");
			Lcd4_Set_Cursor(1,1);
			Lcd4_Write_String("Temp: ");
			Temp = 0;
     922:	a1 2c       	mov	r10, r1
     924:	b1 2c       	mov	r11, r1
			factor = 1;
     926:	cc 24       	eor	r12, r12
     928:	c3 94       	inc	r12
     92a:	d1 2c       	mov	r13, r1
	Lcd4_Write_String("Press Enter");
	Lcd4_Set_Cursor(1,1);
	Lcd4_Write_String("Temp: ");
	while (Input!=13){
		
		Input = GetKeyPadInput();
     92c:	0e 94 c1 03 	call	0x782	; 0x782 <GetKeyPadInput>
     930:	8c 01       	movw	r16, r24
		if (Input==Enter){break;}
     932:	0d 97       	sbiw	r24, 0x0d	; 13
     934:	09 f4       	brne	.+2      	; 0x938 <Get_Temperature+0x5a>
     936:	3f c0       	rjmp	.+126    	; 0x9b6 <Get_Temperature+0xd8>
		if (Input == -1||Input ==99||Input ==10||Input ==11||Input ==12||Input ==14||Input ==15){
     938:	0f 3f       	cpi	r16, 0xFF	; 255
     93a:	8f ef       	ldi	r24, 0xFF	; 255
     93c:	18 07       	cpc	r17, r24
     93e:	59 f0       	breq	.+22     	; 0x956 <Get_Temperature+0x78>
     940:	03 36       	cpi	r16, 0x63	; 99
     942:	11 05       	cpc	r17, r1
     944:	41 f0       	breq	.+16     	; 0x956 <Get_Temperature+0x78>
     946:	c8 01       	movw	r24, r16
     948:	0a 97       	sbiw	r24, 0x0a	; 10
     94a:	83 30       	cpi	r24, 0x03	; 3
     94c:	91 05       	cpc	r25, r1
     94e:	18 f0       	brcs	.+6      	; 0x956 <Get_Temperature+0x78>
     950:	04 97       	sbiw	r24, 0x04	; 4
     952:	02 97       	sbiw	r24, 0x02	; 2
     954:	d0 f4       	brcc	.+52     	; 0x98a <Get_Temperature+0xac>
			Lcd4_Write_String("Error - Restart");
     956:	84 e9       	ldi	r24, 0x94	; 148
     958:	90 e0       	ldi	r25, 0x00	; 0
     95a:	0e 94 fc 02 	call	0x5f8	; 0x5f8 <Lcd4_Write_String>
			Lcd4_Clear();
     95e:	0e 94 5e 02 	call	0x4bc	; 0x4bc <Lcd4_Clear>
			Lcd4_Set_Cursor(2,1);
     962:	61 e0       	ldi	r22, 0x01	; 1
     964:	82 e0       	ldi	r24, 0x02	; 2
     966:	0e 94 65 02 	call	0x4ca	; 0x4ca <Lcd4_Set_Cursor>
			Lcd4_Write_String("Press Enter");
     96a:	88 e8       	ldi	r24, 0x88	; 136
     96c:	90 e0       	ldi	r25, 0x00	; 0
     96e:	0e 94 fc 02 	call	0x5f8	; 0x5f8 <Lcd4_Write_String>
			Lcd4_Set_Cursor(1,1);
     972:	61 e0       	ldi	r22, 0x01	; 1
     974:	81 e0       	ldi	r24, 0x01	; 1
     976:	0e 94 65 02 	call	0x4ca	; 0x4ca <Lcd4_Set_Cursor>
			Lcd4_Write_String("Temp: ");
     97a:	8d ea       	ldi	r24, 0xAD	; 173
     97c:	90 e0       	ldi	r25, 0x00	; 0
     97e:	0e 94 fc 02 	call	0x5f8	; 0x5f8 <Lcd4_Write_String>
			Temp = 0;
     982:	ea 2c       	mov	r14, r10
     984:	fb 2c       	mov	r15, r11
			factor = 1;
     986:	cc 2d       	mov	r28, r12
     988:	dd 2d       	mov	r29, r13
		}
		Temp *=factor;
     98a:	ec 9e       	mul	r14, r28
     98c:	c0 01       	movw	r24, r0
     98e:	ed 9e       	mul	r14, r29
     990:	90 0d       	add	r25, r0
     992:	fc 9e       	mul	r15, r28
     994:	90 0d       	add	r25, r0
     996:	11 24       	eor	r1, r1
		Temp +=Input;
     998:	7c 01       	movw	r14, r24
     99a:	e0 0e       	add	r14, r16
     99c:	f1 1e       	adc	r15, r17
		factor*=10;
     99e:	ce 01       	movw	r24, r28
     9a0:	88 0f       	add	r24, r24
     9a2:	99 1f       	adc	r25, r25
     9a4:	cc 0f       	add	r28, r28
     9a6:	dd 1f       	adc	r29, r29
     9a8:	cc 0f       	add	r28, r28
     9aa:	dd 1f       	adc	r29, r29
     9ac:	cc 0f       	add	r28, r28
     9ae:	dd 1f       	adc	r29, r29
     9b0:	c8 0f       	add	r28, r24
     9b2:	d9 1f       	adc	r29, r25
     9b4:	bb cf       	rjmp	.-138    	; 0x92c <Get_Temperature+0x4e>
		
		
	}
	return Temp;
}
     9b6:	c7 01       	movw	r24, r14
     9b8:	df 91       	pop	r29
     9ba:	cf 91       	pop	r28
     9bc:	1f 91       	pop	r17
     9be:	0f 91       	pop	r16
     9c0:	ff 90       	pop	r15
     9c2:	ef 90       	pop	r14
     9c4:	df 90       	pop	r13
     9c6:	cf 90       	pop	r12
     9c8:	bf 90       	pop	r11
     9ca:	af 90       	pop	r10
     9cc:	08 95       	ret

000009ce <Init_Kepyad>:
}
		}

void Init_Kepyad()
{
	DDRB = 0xF0; //setting the columns as inputs and the rows as outputs
     9ce:	80 ef       	ldi	r24, 0xF0	; 240
     9d0:	87 bb       	out	0x17, r24	; 23
     9d2:	8f e9       	ldi	r24, 0x9F	; 159
     9d4:	9f e0       	ldi	r25, 0x0F	; 15
     9d6:	01 97       	sbiw	r24, 0x01	; 1
     9d8:	f1 f7       	brne	.-4      	; 0x9d6 <Init_Kepyad+0x8>
     9da:	00 c0       	rjmp	.+0      	; 0x9dc <Init_Kepyad+0xe>
     9dc:	00 00       	nop
	_delay_ms(1);
	PORTB = 0x0F;
     9de:	8f e0       	ldi	r24, 0x0F	; 15
     9e0:	88 bb       	out	0x18, r24	; 24
     9e2:	8f e9       	ldi	r24, 0x9F	; 159
     9e4:	9f e0       	ldi	r25, 0x0F	; 15
     9e6:	01 97       	sbiw	r24, 0x01	; 1
     9e8:	f1 f7       	brne	.-4      	; 0x9e6 <Init_Kepyad+0x18>
     9ea:	00 c0       	rjmp	.+0      	; 0x9ec <Init_Kepyad+0x1e>
     9ec:	00 00       	nop
     9ee:	08 95       	ret

000009f0 <main>:
}

int main(void)
{	
	
	DDRD = 0xff;
     9f0:	8f ef       	ldi	r24, 0xFF	; 255
     9f2:	81 bb       	out	0x11, r24	; 17
	DDRC = 0xff;
     9f4:	84 bb       	out	0x14, r24	; 20
     9f6:	2f ef       	ldi	r18, 0xFF	; 255
     9f8:	89 ef       	ldi	r24, 0xF9	; 249
     9fa:	90 e0       	ldi	r25, 0x00	; 0
     9fc:	21 50       	subi	r18, 0x01	; 1
     9fe:	80 40       	sbci	r24, 0x00	; 0
     a00:	90 40       	sbci	r25, 0x00	; 0
     a02:	e1 f7       	brne	.-8      	; 0x9fc <main+0xc>
     a04:	00 c0       	rjmp	.+0      	; 0xa06 <main+0x16>
     a06:	00 00       	nop
	
	int Temperature = -1;
	_delay_ms(20);
	Lcd4_Turn_On();
     a08:	0e 94 63 03 	call	0x6c6	; 0x6c6 <Lcd4_Turn_On>
     a0c:	2f ef       	ldi	r18, 0xFF	; 255
     a0e:	89 ef       	ldi	r24, 0xF9	; 249
     a10:	90 e0       	ldi	r25, 0x00	; 0
     a12:	21 50       	subi	r18, 0x01	; 1
     a14:	80 40       	sbci	r24, 0x00	; 0
     a16:	90 40       	sbci	r25, 0x00	; 0
     a18:	e1 f7       	brne	.-8      	; 0xa12 <main+0x22>
     a1a:	00 c0       	rjmp	.+0      	; 0xa1c <main+0x2c>
     a1c:	00 00       	nop
	_delay_ms(20);
	enable_INT1_interrupt();
     a1e:	0e 94 0b 03 	call	0x616	; 0x616 <enable_INT1_interrupt>
	Lcd4_Init();
     a22:	0e 94 82 02 	call	0x504	; 0x504 <Lcd4_Init>
	Lcd4_EnterNumber();
     a26:	0e 94 48 03 	call	0x690	; 0x690 <Lcd4_EnterNumber>
	
	Init_Kepyad();
     a2a:	0e 94 e7 04 	call	0x9ce	; 0x9ce <Init_Kepyad>
	
	GetKeyPadInput();
     a2e:	0e 94 c1 03 	call	0x782	; 0x782 <GetKeyPadInput>
	
	Lcd4_Turn_Off();
     a32:	0e 94 6e 03 	call	0x6dc	; 0x6dc <Lcd4_Turn_Off>
     a36:	2f ef       	ldi	r18, 0xFF	; 255
     a38:	89 ef       	ldi	r24, 0xF9	; 249
     a3a:	90 e0       	ldi	r25, 0x00	; 0
     a3c:	21 50       	subi	r18, 0x01	; 1
     a3e:	80 40       	sbci	r24, 0x00	; 0
     a40:	90 40       	sbci	r25, 0x00	; 0
     a42:	e1 f7       	brne	.-8      	; 0xa3c <main+0x4c>
     a44:	00 c0       	rjmp	.+0      	; 0xa46 <main+0x56>
     a46:	00 00       	nop
	_delay_ms(20);
	Lcd4_Turn_On();
     a48:	0e 94 63 03 	call	0x6c6	; 0x6c6 <Lcd4_Turn_On>
     a4c:	2f ef       	ldi	r18, 0xFF	; 255
     a4e:	89 ef       	ldi	r24, 0xF9	; 249
     a50:	90 e0       	ldi	r25, 0x00	; 0
     a52:	21 50       	subi	r18, 0x01	; 1
     a54:	80 40       	sbci	r24, 0x00	; 0
     a56:	90 40       	sbci	r25, 0x00	; 0
     a58:	e1 f7       	brne	.-8      	; 0xa52 <main+0x62>
     a5a:	00 c0       	rjmp	.+0      	; 0xa5c <main+0x6c>
     a5c:	00 00       	nop
	_delay_ms(20);
	Lcd4_Init();
     a5e:	0e 94 82 02 	call	0x504	; 0x504 <Lcd4_Init>
	
	
	while (1){
		Temperature = Get_Temperature();
     a62:	0e 94 6f 04 	call	0x8de	; 0x8de <Get_Temperature>
     a66:	ec 01       	movw	r28, r24
     a68:	8f e3       	ldi	r24, 0x3F	; 63
     a6a:	9c e9       	ldi	r25, 0x9C	; 156
     a6c:	01 97       	sbiw	r24, 0x01	; 1
     a6e:	f1 f7       	brne	.-4      	; 0xa6c <main+0x7c>
     a70:	00 c0       	rjmp	.+0      	; 0xa72 <main+0x82>
     a72:	00 00       	nop
		_delay_ms(10);
		Lcd4_Clear();
     a74:	0e 94 5e 02 	call	0x4bc	; 0x4bc <Lcd4_Clear>
		Lcd4_Set_Cursor(1,1);
     a78:	61 e0       	ldi	r22, 0x01	; 1
     a7a:	81 e0       	ldi	r24, 0x01	; 1
     a7c:	0e 94 65 02 	call	0x4ca	; 0x4ca <Lcd4_Set_Cursor>
		Lcd4_Write_String("Obtained Temp: ");
     a80:	84 ea       	ldi	r24, 0xA4	; 164
     a82:	90 e0       	ldi	r25, 0x00	; 0
     a84:	0e 94 fc 02 	call	0x5f8	; 0x5f8 <Lcd4_Write_String>
		Lcd4_Set_Cursor(2,1);
     a88:	61 e0       	ldi	r22, 0x01	; 1
     a8a:	82 e0       	ldi	r24, 0x02	; 2
     a8c:	0e 94 65 02 	call	0x4ca	; 0x4ca <Lcd4_Set_Cursor>
		Lcd4_Write_Number(Temperature);
     a90:	ce 01       	movw	r24, r28
     a92:	0e 94 82 03 	call	0x704	; 0x704 <Lcd4_Write_Number>
     a96:	9f ef       	ldi	r25, 0xFF	; 255
     a98:	29 ef       	ldi	r18, 0xF9	; 249
     a9a:	80 e0       	ldi	r24, 0x00	; 0
     a9c:	91 50       	subi	r25, 0x01	; 1
     a9e:	20 40       	sbci	r18, 0x00	; 0
     aa0:	80 40       	sbci	r24, 0x00	; 0
     aa2:	e1 f7       	brne	.-8      	; 0xa9c <main+0xac>
     aa4:	00 c0       	rjmp	.+0      	; 0xaa6 <main+0xb6>
     aa6:	00 00       	nop
		
		_delay_ms(20);
		
		Lcd4_Clear();
     aa8:	0e 94 5e 02 	call	0x4bc	; 0x4bc <Lcd4_Clear>
		Lcd4_Set_Cursor(1,1);
     aac:	61 e0       	ldi	r22, 0x01	; 1
     aae:	81 e0       	ldi	r24, 0x01	; 1
     ab0:	0e 94 65 02 	call	0x4ca	; 0x4ca <Lcd4_Set_Cursor>
		Lcd4_Write_String("Obtained TempX2: ");
     ab4:	84 eb       	ldi	r24, 0xB4	; 180
     ab6:	90 e0       	ldi	r25, 0x00	; 0
     ab8:	0e 94 fc 02 	call	0x5f8	; 0x5f8 <Lcd4_Write_String>
		Lcd4_Set_Cursor(2,1);
     abc:	61 e0       	ldi	r22, 0x01	; 1
     abe:	82 e0       	ldi	r24, 0x02	; 2
     ac0:	0e 94 65 02 	call	0x4ca	; 0x4ca <Lcd4_Set_Cursor>
		Lcd4_Write_Number(Temperature*2);
     ac4:	ce 01       	movw	r24, r28
     ac6:	88 0f       	add	r24, r24
     ac8:	99 1f       	adc	r25, r25
     aca:	0e 94 82 03 	call	0x704	; 0x704 <Lcd4_Write_Number>
     ace:	9f ef       	ldi	r25, 0xFF	; 255
     ad0:	27 ea       	ldi	r18, 0xA7	; 167
     ad2:	81 e6       	ldi	r24, 0x61	; 97
     ad4:	91 50       	subi	r25, 0x01	; 1
     ad6:	20 40       	sbci	r18, 0x00	; 0
     ad8:	80 40       	sbci	r24, 0x00	; 0
     ada:	e1 f7       	brne	.-8      	; 0xad4 <main+0xe4>
     adc:	00 c0       	rjmp	.+0      	; 0xade <main+0xee>
     ade:	00 00       	nop
     ae0:	c0 cf       	rjmp	.-128    	; 0xa62 <main+0x72>

00000ae2 <__tablejump2__>:
     ae2:	ee 0f       	add	r30, r30
     ae4:	ff 1f       	adc	r31, r31
     ae6:	05 90       	lpm	r0, Z+
     ae8:	f4 91       	lpm	r31, Z
     aea:	e0 2d       	mov	r30, r0
     aec:	09 94       	ijmp

00000aee <sprintf>:
     aee:	ae e0       	ldi	r26, 0x0E	; 14
     af0:	b0 e0       	ldi	r27, 0x00	; 0
     af2:	ed e7       	ldi	r30, 0x7D	; 125
     af4:	f5 e0       	ldi	r31, 0x05	; 5
     af6:	0c 94 38 08 	jmp	0x1070	; 0x1070 <__prologue_saves__+0x1c>
     afa:	0d 89       	ldd	r16, Y+21	; 0x15
     afc:	1e 89       	ldd	r17, Y+22	; 0x16
     afe:	86 e0       	ldi	r24, 0x06	; 6
     b00:	8c 83       	std	Y+4, r24	; 0x04
     b02:	1a 83       	std	Y+2, r17	; 0x02
     b04:	09 83       	std	Y+1, r16	; 0x01
     b06:	8f ef       	ldi	r24, 0xFF	; 255
     b08:	9f e7       	ldi	r25, 0x7F	; 127
     b0a:	9e 83       	std	Y+6, r25	; 0x06
     b0c:	8d 83       	std	Y+5, r24	; 0x05
     b0e:	ae 01       	movw	r20, r28
     b10:	47 5e       	subi	r20, 0xE7	; 231
     b12:	5f 4f       	sbci	r21, 0xFF	; 255
     b14:	6f 89       	ldd	r22, Y+23	; 0x17
     b16:	78 8d       	ldd	r23, Y+24	; 0x18
     b18:	ce 01       	movw	r24, r28
     b1a:	01 96       	adiw	r24, 0x01	; 1
     b1c:	0e 94 99 05 	call	0xb32	; 0xb32 <vfprintf>
     b20:	ef 81       	ldd	r30, Y+7	; 0x07
     b22:	f8 85       	ldd	r31, Y+8	; 0x08
     b24:	e0 0f       	add	r30, r16
     b26:	f1 1f       	adc	r31, r17
     b28:	10 82       	st	Z, r1
     b2a:	2e 96       	adiw	r28, 0x0e	; 14
     b2c:	e4 e0       	ldi	r30, 0x04	; 4
     b2e:	0c 94 54 08 	jmp	0x10a8	; 0x10a8 <__epilogue_restores__+0x1c>

00000b32 <vfprintf>:
     b32:	ab e0       	ldi	r26, 0x0B	; 11
     b34:	b0 e0       	ldi	r27, 0x00	; 0
     b36:	ef e9       	ldi	r30, 0x9F	; 159
     b38:	f5 e0       	ldi	r31, 0x05	; 5
     b3a:	0c 94 2a 08 	jmp	0x1054	; 0x1054 <__prologue_saves__>
     b3e:	6c 01       	movw	r12, r24
     b40:	7b 01       	movw	r14, r22
     b42:	8a 01       	movw	r16, r20
     b44:	fc 01       	movw	r30, r24
     b46:	17 82       	std	Z+7, r1	; 0x07
     b48:	16 82       	std	Z+6, r1	; 0x06
     b4a:	83 81       	ldd	r24, Z+3	; 0x03
     b4c:	81 ff       	sbrs	r24, 1
     b4e:	cc c1       	rjmp	.+920    	; 0xee8 <vfprintf+0x3b6>
     b50:	ce 01       	movw	r24, r28
     b52:	01 96       	adiw	r24, 0x01	; 1
     b54:	3c 01       	movw	r6, r24
     b56:	f6 01       	movw	r30, r12
     b58:	93 81       	ldd	r25, Z+3	; 0x03
     b5a:	f7 01       	movw	r30, r14
     b5c:	93 fd       	sbrc	r25, 3
     b5e:	85 91       	lpm	r24, Z+
     b60:	93 ff       	sbrs	r25, 3
     b62:	81 91       	ld	r24, Z+
     b64:	7f 01       	movw	r14, r30
     b66:	88 23       	and	r24, r24
     b68:	09 f4       	brne	.+2      	; 0xb6c <vfprintf+0x3a>
     b6a:	ba c1       	rjmp	.+884    	; 0xee0 <vfprintf+0x3ae>
     b6c:	85 32       	cpi	r24, 0x25	; 37
     b6e:	39 f4       	brne	.+14     	; 0xb7e <vfprintf+0x4c>
     b70:	93 fd       	sbrc	r25, 3
     b72:	85 91       	lpm	r24, Z+
     b74:	93 ff       	sbrs	r25, 3
     b76:	81 91       	ld	r24, Z+
     b78:	7f 01       	movw	r14, r30
     b7a:	85 32       	cpi	r24, 0x25	; 37
     b7c:	29 f4       	brne	.+10     	; 0xb88 <vfprintf+0x56>
     b7e:	b6 01       	movw	r22, r12
     b80:	90 e0       	ldi	r25, 0x00	; 0
     b82:	0e 94 90 07 	call	0xf20	; 0xf20 <fputc>
     b86:	e7 cf       	rjmp	.-50     	; 0xb56 <vfprintf+0x24>
     b88:	91 2c       	mov	r9, r1
     b8a:	21 2c       	mov	r2, r1
     b8c:	31 2c       	mov	r3, r1
     b8e:	ff e1       	ldi	r31, 0x1F	; 31
     b90:	f3 15       	cp	r31, r3
     b92:	d8 f0       	brcs	.+54     	; 0xbca <vfprintf+0x98>
     b94:	8b 32       	cpi	r24, 0x2B	; 43
     b96:	79 f0       	breq	.+30     	; 0xbb6 <vfprintf+0x84>
     b98:	38 f4       	brcc	.+14     	; 0xba8 <vfprintf+0x76>
     b9a:	80 32       	cpi	r24, 0x20	; 32
     b9c:	79 f0       	breq	.+30     	; 0xbbc <vfprintf+0x8a>
     b9e:	83 32       	cpi	r24, 0x23	; 35
     ba0:	a1 f4       	brne	.+40     	; 0xbca <vfprintf+0x98>
     ba2:	23 2d       	mov	r18, r3
     ba4:	20 61       	ori	r18, 0x10	; 16
     ba6:	1d c0       	rjmp	.+58     	; 0xbe2 <vfprintf+0xb0>
     ba8:	8d 32       	cpi	r24, 0x2D	; 45
     baa:	61 f0       	breq	.+24     	; 0xbc4 <vfprintf+0x92>
     bac:	80 33       	cpi	r24, 0x30	; 48
     bae:	69 f4       	brne	.+26     	; 0xbca <vfprintf+0x98>
     bb0:	23 2d       	mov	r18, r3
     bb2:	21 60       	ori	r18, 0x01	; 1
     bb4:	16 c0       	rjmp	.+44     	; 0xbe2 <vfprintf+0xb0>
     bb6:	83 2d       	mov	r24, r3
     bb8:	82 60       	ori	r24, 0x02	; 2
     bba:	38 2e       	mov	r3, r24
     bbc:	e3 2d       	mov	r30, r3
     bbe:	e4 60       	ori	r30, 0x04	; 4
     bc0:	3e 2e       	mov	r3, r30
     bc2:	2a c0       	rjmp	.+84     	; 0xc18 <vfprintf+0xe6>
     bc4:	f3 2d       	mov	r31, r3
     bc6:	f8 60       	ori	r31, 0x08	; 8
     bc8:	1d c0       	rjmp	.+58     	; 0xc04 <vfprintf+0xd2>
     bca:	37 fc       	sbrc	r3, 7
     bcc:	2d c0       	rjmp	.+90     	; 0xc28 <vfprintf+0xf6>
     bce:	20 ed       	ldi	r18, 0xD0	; 208
     bd0:	28 0f       	add	r18, r24
     bd2:	2a 30       	cpi	r18, 0x0A	; 10
     bd4:	40 f0       	brcs	.+16     	; 0xbe6 <vfprintf+0xb4>
     bd6:	8e 32       	cpi	r24, 0x2E	; 46
     bd8:	b9 f4       	brne	.+46     	; 0xc08 <vfprintf+0xd6>
     bda:	36 fc       	sbrc	r3, 6
     bdc:	81 c1       	rjmp	.+770    	; 0xee0 <vfprintf+0x3ae>
     bde:	23 2d       	mov	r18, r3
     be0:	20 64       	ori	r18, 0x40	; 64
     be2:	32 2e       	mov	r3, r18
     be4:	19 c0       	rjmp	.+50     	; 0xc18 <vfprintf+0xe6>
     be6:	36 fe       	sbrs	r3, 6
     be8:	06 c0       	rjmp	.+12     	; 0xbf6 <vfprintf+0xc4>
     bea:	8a e0       	ldi	r24, 0x0A	; 10
     bec:	98 9e       	mul	r9, r24
     bee:	20 0d       	add	r18, r0
     bf0:	11 24       	eor	r1, r1
     bf2:	92 2e       	mov	r9, r18
     bf4:	11 c0       	rjmp	.+34     	; 0xc18 <vfprintf+0xe6>
     bf6:	ea e0       	ldi	r30, 0x0A	; 10
     bf8:	2e 9e       	mul	r2, r30
     bfa:	20 0d       	add	r18, r0
     bfc:	11 24       	eor	r1, r1
     bfe:	22 2e       	mov	r2, r18
     c00:	f3 2d       	mov	r31, r3
     c02:	f0 62       	ori	r31, 0x20	; 32
     c04:	3f 2e       	mov	r3, r31
     c06:	08 c0       	rjmp	.+16     	; 0xc18 <vfprintf+0xe6>
     c08:	8c 36       	cpi	r24, 0x6C	; 108
     c0a:	21 f4       	brne	.+8      	; 0xc14 <vfprintf+0xe2>
     c0c:	83 2d       	mov	r24, r3
     c0e:	80 68       	ori	r24, 0x80	; 128
     c10:	38 2e       	mov	r3, r24
     c12:	02 c0       	rjmp	.+4      	; 0xc18 <vfprintf+0xe6>
     c14:	88 36       	cpi	r24, 0x68	; 104
     c16:	41 f4       	brne	.+16     	; 0xc28 <vfprintf+0xf6>
     c18:	f7 01       	movw	r30, r14
     c1a:	93 fd       	sbrc	r25, 3
     c1c:	85 91       	lpm	r24, Z+
     c1e:	93 ff       	sbrs	r25, 3
     c20:	81 91       	ld	r24, Z+
     c22:	7f 01       	movw	r14, r30
     c24:	81 11       	cpse	r24, r1
     c26:	b3 cf       	rjmp	.-154    	; 0xb8e <vfprintf+0x5c>
     c28:	98 2f       	mov	r25, r24
     c2a:	9f 7d       	andi	r25, 0xDF	; 223
     c2c:	95 54       	subi	r25, 0x45	; 69
     c2e:	93 30       	cpi	r25, 0x03	; 3
     c30:	28 f4       	brcc	.+10     	; 0xc3c <vfprintf+0x10a>
     c32:	0c 5f       	subi	r16, 0xFC	; 252
     c34:	1f 4f       	sbci	r17, 0xFF	; 255
     c36:	9f e3       	ldi	r25, 0x3F	; 63
     c38:	99 83       	std	Y+1, r25	; 0x01
     c3a:	0d c0       	rjmp	.+26     	; 0xc56 <vfprintf+0x124>
     c3c:	83 36       	cpi	r24, 0x63	; 99
     c3e:	31 f0       	breq	.+12     	; 0xc4c <vfprintf+0x11a>
     c40:	83 37       	cpi	r24, 0x73	; 115
     c42:	71 f0       	breq	.+28     	; 0xc60 <vfprintf+0x12e>
     c44:	83 35       	cpi	r24, 0x53	; 83
     c46:	09 f0       	breq	.+2      	; 0xc4a <vfprintf+0x118>
     c48:	59 c0       	rjmp	.+178    	; 0xcfc <vfprintf+0x1ca>
     c4a:	21 c0       	rjmp	.+66     	; 0xc8e <vfprintf+0x15c>
     c4c:	f8 01       	movw	r30, r16
     c4e:	80 81       	ld	r24, Z
     c50:	89 83       	std	Y+1, r24	; 0x01
     c52:	0e 5f       	subi	r16, 0xFE	; 254
     c54:	1f 4f       	sbci	r17, 0xFF	; 255
     c56:	88 24       	eor	r8, r8
     c58:	83 94       	inc	r8
     c5a:	91 2c       	mov	r9, r1
     c5c:	53 01       	movw	r10, r6
     c5e:	13 c0       	rjmp	.+38     	; 0xc86 <vfprintf+0x154>
     c60:	28 01       	movw	r4, r16
     c62:	f2 e0       	ldi	r31, 0x02	; 2
     c64:	4f 0e       	add	r4, r31
     c66:	51 1c       	adc	r5, r1
     c68:	f8 01       	movw	r30, r16
     c6a:	a0 80       	ld	r10, Z
     c6c:	b1 80       	ldd	r11, Z+1	; 0x01
     c6e:	36 fe       	sbrs	r3, 6
     c70:	03 c0       	rjmp	.+6      	; 0xc78 <vfprintf+0x146>
     c72:	69 2d       	mov	r22, r9
     c74:	70 e0       	ldi	r23, 0x00	; 0
     c76:	02 c0       	rjmp	.+4      	; 0xc7c <vfprintf+0x14a>
     c78:	6f ef       	ldi	r22, 0xFF	; 255
     c7a:	7f ef       	ldi	r23, 0xFF	; 255
     c7c:	c5 01       	movw	r24, r10
     c7e:	0e 94 85 07 	call	0xf0a	; 0xf0a <strnlen>
     c82:	4c 01       	movw	r8, r24
     c84:	82 01       	movw	r16, r4
     c86:	f3 2d       	mov	r31, r3
     c88:	ff 77       	andi	r31, 0x7F	; 127
     c8a:	3f 2e       	mov	r3, r31
     c8c:	16 c0       	rjmp	.+44     	; 0xcba <vfprintf+0x188>
     c8e:	28 01       	movw	r4, r16
     c90:	22 e0       	ldi	r18, 0x02	; 2
     c92:	42 0e       	add	r4, r18
     c94:	51 1c       	adc	r5, r1
     c96:	f8 01       	movw	r30, r16
     c98:	a0 80       	ld	r10, Z
     c9a:	b1 80       	ldd	r11, Z+1	; 0x01
     c9c:	36 fe       	sbrs	r3, 6
     c9e:	03 c0       	rjmp	.+6      	; 0xca6 <vfprintf+0x174>
     ca0:	69 2d       	mov	r22, r9
     ca2:	70 e0       	ldi	r23, 0x00	; 0
     ca4:	02 c0       	rjmp	.+4      	; 0xcaa <vfprintf+0x178>
     ca6:	6f ef       	ldi	r22, 0xFF	; 255
     ca8:	7f ef       	ldi	r23, 0xFF	; 255
     caa:	c5 01       	movw	r24, r10
     cac:	0e 94 7a 07 	call	0xef4	; 0xef4 <strnlen_P>
     cb0:	4c 01       	movw	r8, r24
     cb2:	f3 2d       	mov	r31, r3
     cb4:	f0 68       	ori	r31, 0x80	; 128
     cb6:	3f 2e       	mov	r3, r31
     cb8:	82 01       	movw	r16, r4
     cba:	33 fc       	sbrc	r3, 3
     cbc:	1b c0       	rjmp	.+54     	; 0xcf4 <vfprintf+0x1c2>
     cbe:	82 2d       	mov	r24, r2
     cc0:	90 e0       	ldi	r25, 0x00	; 0
     cc2:	88 16       	cp	r8, r24
     cc4:	99 06       	cpc	r9, r25
     cc6:	b0 f4       	brcc	.+44     	; 0xcf4 <vfprintf+0x1c2>
     cc8:	b6 01       	movw	r22, r12
     cca:	80 e2       	ldi	r24, 0x20	; 32
     ccc:	90 e0       	ldi	r25, 0x00	; 0
     cce:	0e 94 90 07 	call	0xf20	; 0xf20 <fputc>
     cd2:	2a 94       	dec	r2
     cd4:	f4 cf       	rjmp	.-24     	; 0xcbe <vfprintf+0x18c>
     cd6:	f5 01       	movw	r30, r10
     cd8:	37 fc       	sbrc	r3, 7
     cda:	85 91       	lpm	r24, Z+
     cdc:	37 fe       	sbrs	r3, 7
     cde:	81 91       	ld	r24, Z+
     ce0:	5f 01       	movw	r10, r30
     ce2:	b6 01       	movw	r22, r12
     ce4:	90 e0       	ldi	r25, 0x00	; 0
     ce6:	0e 94 90 07 	call	0xf20	; 0xf20 <fputc>
     cea:	21 10       	cpse	r2, r1
     cec:	2a 94       	dec	r2
     cee:	21 e0       	ldi	r18, 0x01	; 1
     cf0:	82 1a       	sub	r8, r18
     cf2:	91 08       	sbc	r9, r1
     cf4:	81 14       	cp	r8, r1
     cf6:	91 04       	cpc	r9, r1
     cf8:	71 f7       	brne	.-36     	; 0xcd6 <vfprintf+0x1a4>
     cfa:	e8 c0       	rjmp	.+464    	; 0xecc <vfprintf+0x39a>
     cfc:	84 36       	cpi	r24, 0x64	; 100
     cfe:	11 f0       	breq	.+4      	; 0xd04 <vfprintf+0x1d2>
     d00:	89 36       	cpi	r24, 0x69	; 105
     d02:	41 f5       	brne	.+80     	; 0xd54 <vfprintf+0x222>
     d04:	f8 01       	movw	r30, r16
     d06:	37 fe       	sbrs	r3, 7
     d08:	07 c0       	rjmp	.+14     	; 0xd18 <vfprintf+0x1e6>
     d0a:	60 81       	ld	r22, Z
     d0c:	71 81       	ldd	r23, Z+1	; 0x01
     d0e:	82 81       	ldd	r24, Z+2	; 0x02
     d10:	93 81       	ldd	r25, Z+3	; 0x03
     d12:	0c 5f       	subi	r16, 0xFC	; 252
     d14:	1f 4f       	sbci	r17, 0xFF	; 255
     d16:	08 c0       	rjmp	.+16     	; 0xd28 <vfprintf+0x1f6>
     d18:	60 81       	ld	r22, Z
     d1a:	71 81       	ldd	r23, Z+1	; 0x01
     d1c:	07 2e       	mov	r0, r23
     d1e:	00 0c       	add	r0, r0
     d20:	88 0b       	sbc	r24, r24
     d22:	99 0b       	sbc	r25, r25
     d24:	0e 5f       	subi	r16, 0xFE	; 254
     d26:	1f 4f       	sbci	r17, 0xFF	; 255
     d28:	f3 2d       	mov	r31, r3
     d2a:	ff 76       	andi	r31, 0x6F	; 111
     d2c:	3f 2e       	mov	r3, r31
     d2e:	97 ff       	sbrs	r25, 7
     d30:	09 c0       	rjmp	.+18     	; 0xd44 <vfprintf+0x212>
     d32:	90 95       	com	r25
     d34:	80 95       	com	r24
     d36:	70 95       	com	r23
     d38:	61 95       	neg	r22
     d3a:	7f 4f       	sbci	r23, 0xFF	; 255
     d3c:	8f 4f       	sbci	r24, 0xFF	; 255
     d3e:	9f 4f       	sbci	r25, 0xFF	; 255
     d40:	f0 68       	ori	r31, 0x80	; 128
     d42:	3f 2e       	mov	r3, r31
     d44:	2a e0       	ldi	r18, 0x0A	; 10
     d46:	30 e0       	ldi	r19, 0x00	; 0
     d48:	a3 01       	movw	r20, r6
     d4a:	0e 94 cc 07 	call	0xf98	; 0xf98 <__ultoa_invert>
     d4e:	88 2e       	mov	r8, r24
     d50:	86 18       	sub	r8, r6
     d52:	45 c0       	rjmp	.+138    	; 0xdde <vfprintf+0x2ac>
     d54:	85 37       	cpi	r24, 0x75	; 117
     d56:	31 f4       	brne	.+12     	; 0xd64 <vfprintf+0x232>
     d58:	23 2d       	mov	r18, r3
     d5a:	2f 7e       	andi	r18, 0xEF	; 239
     d5c:	b2 2e       	mov	r11, r18
     d5e:	2a e0       	ldi	r18, 0x0A	; 10
     d60:	30 e0       	ldi	r19, 0x00	; 0
     d62:	25 c0       	rjmp	.+74     	; 0xdae <vfprintf+0x27c>
     d64:	93 2d       	mov	r25, r3
     d66:	99 7f       	andi	r25, 0xF9	; 249
     d68:	b9 2e       	mov	r11, r25
     d6a:	8f 36       	cpi	r24, 0x6F	; 111
     d6c:	c1 f0       	breq	.+48     	; 0xd9e <vfprintf+0x26c>
     d6e:	18 f4       	brcc	.+6      	; 0xd76 <vfprintf+0x244>
     d70:	88 35       	cpi	r24, 0x58	; 88
     d72:	79 f0       	breq	.+30     	; 0xd92 <vfprintf+0x260>
     d74:	b5 c0       	rjmp	.+362    	; 0xee0 <vfprintf+0x3ae>
     d76:	80 37       	cpi	r24, 0x70	; 112
     d78:	19 f0       	breq	.+6      	; 0xd80 <vfprintf+0x24e>
     d7a:	88 37       	cpi	r24, 0x78	; 120
     d7c:	21 f0       	breq	.+8      	; 0xd86 <vfprintf+0x254>
     d7e:	b0 c0       	rjmp	.+352    	; 0xee0 <vfprintf+0x3ae>
     d80:	e9 2f       	mov	r30, r25
     d82:	e0 61       	ori	r30, 0x10	; 16
     d84:	be 2e       	mov	r11, r30
     d86:	b4 fe       	sbrs	r11, 4
     d88:	0d c0       	rjmp	.+26     	; 0xda4 <vfprintf+0x272>
     d8a:	fb 2d       	mov	r31, r11
     d8c:	f4 60       	ori	r31, 0x04	; 4
     d8e:	bf 2e       	mov	r11, r31
     d90:	09 c0       	rjmp	.+18     	; 0xda4 <vfprintf+0x272>
     d92:	34 fe       	sbrs	r3, 4
     d94:	0a c0       	rjmp	.+20     	; 0xdaa <vfprintf+0x278>
     d96:	29 2f       	mov	r18, r25
     d98:	26 60       	ori	r18, 0x06	; 6
     d9a:	b2 2e       	mov	r11, r18
     d9c:	06 c0       	rjmp	.+12     	; 0xdaa <vfprintf+0x278>
     d9e:	28 e0       	ldi	r18, 0x08	; 8
     da0:	30 e0       	ldi	r19, 0x00	; 0
     da2:	05 c0       	rjmp	.+10     	; 0xdae <vfprintf+0x27c>
     da4:	20 e1       	ldi	r18, 0x10	; 16
     da6:	30 e0       	ldi	r19, 0x00	; 0
     da8:	02 c0       	rjmp	.+4      	; 0xdae <vfprintf+0x27c>
     daa:	20 e1       	ldi	r18, 0x10	; 16
     dac:	32 e0       	ldi	r19, 0x02	; 2
     dae:	f8 01       	movw	r30, r16
     db0:	b7 fe       	sbrs	r11, 7
     db2:	07 c0       	rjmp	.+14     	; 0xdc2 <vfprintf+0x290>
     db4:	60 81       	ld	r22, Z
     db6:	71 81       	ldd	r23, Z+1	; 0x01
     db8:	82 81       	ldd	r24, Z+2	; 0x02
     dba:	93 81       	ldd	r25, Z+3	; 0x03
     dbc:	0c 5f       	subi	r16, 0xFC	; 252
     dbe:	1f 4f       	sbci	r17, 0xFF	; 255
     dc0:	06 c0       	rjmp	.+12     	; 0xdce <vfprintf+0x29c>
     dc2:	60 81       	ld	r22, Z
     dc4:	71 81       	ldd	r23, Z+1	; 0x01
     dc6:	80 e0       	ldi	r24, 0x00	; 0
     dc8:	90 e0       	ldi	r25, 0x00	; 0
     dca:	0e 5f       	subi	r16, 0xFE	; 254
     dcc:	1f 4f       	sbci	r17, 0xFF	; 255
     dce:	a3 01       	movw	r20, r6
     dd0:	0e 94 cc 07 	call	0xf98	; 0xf98 <__ultoa_invert>
     dd4:	88 2e       	mov	r8, r24
     dd6:	86 18       	sub	r8, r6
     dd8:	fb 2d       	mov	r31, r11
     dda:	ff 77       	andi	r31, 0x7F	; 127
     ddc:	3f 2e       	mov	r3, r31
     dde:	36 fe       	sbrs	r3, 6
     de0:	0d c0       	rjmp	.+26     	; 0xdfc <vfprintf+0x2ca>
     de2:	23 2d       	mov	r18, r3
     de4:	2e 7f       	andi	r18, 0xFE	; 254
     de6:	a2 2e       	mov	r10, r18
     de8:	89 14       	cp	r8, r9
     dea:	58 f4       	brcc	.+22     	; 0xe02 <vfprintf+0x2d0>
     dec:	34 fe       	sbrs	r3, 4
     dee:	0b c0       	rjmp	.+22     	; 0xe06 <vfprintf+0x2d4>
     df0:	32 fc       	sbrc	r3, 2
     df2:	09 c0       	rjmp	.+18     	; 0xe06 <vfprintf+0x2d4>
     df4:	83 2d       	mov	r24, r3
     df6:	8e 7e       	andi	r24, 0xEE	; 238
     df8:	a8 2e       	mov	r10, r24
     dfa:	05 c0       	rjmp	.+10     	; 0xe06 <vfprintf+0x2d4>
     dfc:	b8 2c       	mov	r11, r8
     dfe:	a3 2c       	mov	r10, r3
     e00:	03 c0       	rjmp	.+6      	; 0xe08 <vfprintf+0x2d6>
     e02:	b8 2c       	mov	r11, r8
     e04:	01 c0       	rjmp	.+2      	; 0xe08 <vfprintf+0x2d6>
     e06:	b9 2c       	mov	r11, r9
     e08:	a4 fe       	sbrs	r10, 4
     e0a:	0f c0       	rjmp	.+30     	; 0xe2a <vfprintf+0x2f8>
     e0c:	fe 01       	movw	r30, r28
     e0e:	e8 0d       	add	r30, r8
     e10:	f1 1d       	adc	r31, r1
     e12:	80 81       	ld	r24, Z
     e14:	80 33       	cpi	r24, 0x30	; 48
     e16:	21 f4       	brne	.+8      	; 0xe20 <vfprintf+0x2ee>
     e18:	9a 2d       	mov	r25, r10
     e1a:	99 7e       	andi	r25, 0xE9	; 233
     e1c:	a9 2e       	mov	r10, r25
     e1e:	09 c0       	rjmp	.+18     	; 0xe32 <vfprintf+0x300>
     e20:	a2 fe       	sbrs	r10, 2
     e22:	06 c0       	rjmp	.+12     	; 0xe30 <vfprintf+0x2fe>
     e24:	b3 94       	inc	r11
     e26:	b3 94       	inc	r11
     e28:	04 c0       	rjmp	.+8      	; 0xe32 <vfprintf+0x300>
     e2a:	8a 2d       	mov	r24, r10
     e2c:	86 78       	andi	r24, 0x86	; 134
     e2e:	09 f0       	breq	.+2      	; 0xe32 <vfprintf+0x300>
     e30:	b3 94       	inc	r11
     e32:	a3 fc       	sbrc	r10, 3
     e34:	11 c0       	rjmp	.+34     	; 0xe58 <vfprintf+0x326>
     e36:	a0 fe       	sbrs	r10, 0
     e38:	06 c0       	rjmp	.+12     	; 0xe46 <vfprintf+0x314>
     e3a:	b2 14       	cp	r11, r2
     e3c:	88 f4       	brcc	.+34     	; 0xe60 <vfprintf+0x32e>
     e3e:	28 0c       	add	r2, r8
     e40:	92 2c       	mov	r9, r2
     e42:	9b 18       	sub	r9, r11
     e44:	0e c0       	rjmp	.+28     	; 0xe62 <vfprintf+0x330>
     e46:	b2 14       	cp	r11, r2
     e48:	60 f4       	brcc	.+24     	; 0xe62 <vfprintf+0x330>
     e4a:	b6 01       	movw	r22, r12
     e4c:	80 e2       	ldi	r24, 0x20	; 32
     e4e:	90 e0       	ldi	r25, 0x00	; 0
     e50:	0e 94 90 07 	call	0xf20	; 0xf20 <fputc>
     e54:	b3 94       	inc	r11
     e56:	f7 cf       	rjmp	.-18     	; 0xe46 <vfprintf+0x314>
     e58:	b2 14       	cp	r11, r2
     e5a:	18 f4       	brcc	.+6      	; 0xe62 <vfprintf+0x330>
     e5c:	2b 18       	sub	r2, r11
     e5e:	02 c0       	rjmp	.+4      	; 0xe64 <vfprintf+0x332>
     e60:	98 2c       	mov	r9, r8
     e62:	21 2c       	mov	r2, r1
     e64:	a4 fe       	sbrs	r10, 4
     e66:	10 c0       	rjmp	.+32     	; 0xe88 <vfprintf+0x356>
     e68:	b6 01       	movw	r22, r12
     e6a:	80 e3       	ldi	r24, 0x30	; 48
     e6c:	90 e0       	ldi	r25, 0x00	; 0
     e6e:	0e 94 90 07 	call	0xf20	; 0xf20 <fputc>
     e72:	a2 fe       	sbrs	r10, 2
     e74:	17 c0       	rjmp	.+46     	; 0xea4 <vfprintf+0x372>
     e76:	a1 fc       	sbrc	r10, 1
     e78:	03 c0       	rjmp	.+6      	; 0xe80 <vfprintf+0x34e>
     e7a:	88 e7       	ldi	r24, 0x78	; 120
     e7c:	90 e0       	ldi	r25, 0x00	; 0
     e7e:	02 c0       	rjmp	.+4      	; 0xe84 <vfprintf+0x352>
     e80:	88 e5       	ldi	r24, 0x58	; 88
     e82:	90 e0       	ldi	r25, 0x00	; 0
     e84:	b6 01       	movw	r22, r12
     e86:	0c c0       	rjmp	.+24     	; 0xea0 <vfprintf+0x36e>
     e88:	8a 2d       	mov	r24, r10
     e8a:	86 78       	andi	r24, 0x86	; 134
     e8c:	59 f0       	breq	.+22     	; 0xea4 <vfprintf+0x372>
     e8e:	a1 fe       	sbrs	r10, 1
     e90:	02 c0       	rjmp	.+4      	; 0xe96 <vfprintf+0x364>
     e92:	8b e2       	ldi	r24, 0x2B	; 43
     e94:	01 c0       	rjmp	.+2      	; 0xe98 <vfprintf+0x366>
     e96:	80 e2       	ldi	r24, 0x20	; 32
     e98:	a7 fc       	sbrc	r10, 7
     e9a:	8d e2       	ldi	r24, 0x2D	; 45
     e9c:	b6 01       	movw	r22, r12
     e9e:	90 e0       	ldi	r25, 0x00	; 0
     ea0:	0e 94 90 07 	call	0xf20	; 0xf20 <fputc>
     ea4:	89 14       	cp	r8, r9
     ea6:	38 f4       	brcc	.+14     	; 0xeb6 <vfprintf+0x384>
     ea8:	b6 01       	movw	r22, r12
     eaa:	80 e3       	ldi	r24, 0x30	; 48
     eac:	90 e0       	ldi	r25, 0x00	; 0
     eae:	0e 94 90 07 	call	0xf20	; 0xf20 <fputc>
     eb2:	9a 94       	dec	r9
     eb4:	f7 cf       	rjmp	.-18     	; 0xea4 <vfprintf+0x372>
     eb6:	8a 94       	dec	r8
     eb8:	f3 01       	movw	r30, r6
     eba:	e8 0d       	add	r30, r8
     ebc:	f1 1d       	adc	r31, r1
     ebe:	80 81       	ld	r24, Z
     ec0:	b6 01       	movw	r22, r12
     ec2:	90 e0       	ldi	r25, 0x00	; 0
     ec4:	0e 94 90 07 	call	0xf20	; 0xf20 <fputc>
     ec8:	81 10       	cpse	r8, r1
     eca:	f5 cf       	rjmp	.-22     	; 0xeb6 <vfprintf+0x384>
     ecc:	22 20       	and	r2, r2
     ece:	09 f4       	brne	.+2      	; 0xed2 <vfprintf+0x3a0>
     ed0:	42 ce       	rjmp	.-892    	; 0xb56 <vfprintf+0x24>
     ed2:	b6 01       	movw	r22, r12
     ed4:	80 e2       	ldi	r24, 0x20	; 32
     ed6:	90 e0       	ldi	r25, 0x00	; 0
     ed8:	0e 94 90 07 	call	0xf20	; 0xf20 <fputc>
     edc:	2a 94       	dec	r2
     ede:	f6 cf       	rjmp	.-20     	; 0xecc <vfprintf+0x39a>
     ee0:	f6 01       	movw	r30, r12
     ee2:	86 81       	ldd	r24, Z+6	; 0x06
     ee4:	97 81       	ldd	r25, Z+7	; 0x07
     ee6:	02 c0       	rjmp	.+4      	; 0xeec <vfprintf+0x3ba>
     ee8:	8f ef       	ldi	r24, 0xFF	; 255
     eea:	9f ef       	ldi	r25, 0xFF	; 255
     eec:	2b 96       	adiw	r28, 0x0b	; 11
     eee:	e2 e1       	ldi	r30, 0x12	; 18
     ef0:	0c 94 46 08 	jmp	0x108c	; 0x108c <__epilogue_restores__>

00000ef4 <strnlen_P>:
     ef4:	fc 01       	movw	r30, r24
     ef6:	05 90       	lpm	r0, Z+
     ef8:	61 50       	subi	r22, 0x01	; 1
     efa:	70 40       	sbci	r23, 0x00	; 0
     efc:	01 10       	cpse	r0, r1
     efe:	d8 f7       	brcc	.-10     	; 0xef6 <strnlen_P+0x2>
     f00:	80 95       	com	r24
     f02:	90 95       	com	r25
     f04:	8e 0f       	add	r24, r30
     f06:	9f 1f       	adc	r25, r31
     f08:	08 95       	ret

00000f0a <strnlen>:
     f0a:	fc 01       	movw	r30, r24
     f0c:	61 50       	subi	r22, 0x01	; 1
     f0e:	70 40       	sbci	r23, 0x00	; 0
     f10:	01 90       	ld	r0, Z+
     f12:	01 10       	cpse	r0, r1
     f14:	d8 f7       	brcc	.-10     	; 0xf0c <strnlen+0x2>
     f16:	80 95       	com	r24
     f18:	90 95       	com	r25
     f1a:	8e 0f       	add	r24, r30
     f1c:	9f 1f       	adc	r25, r31
     f1e:	08 95       	ret

00000f20 <fputc>:
     f20:	0f 93       	push	r16
     f22:	1f 93       	push	r17
     f24:	cf 93       	push	r28
     f26:	df 93       	push	r29
     f28:	fb 01       	movw	r30, r22
     f2a:	23 81       	ldd	r18, Z+3	; 0x03
     f2c:	21 fd       	sbrc	r18, 1
     f2e:	03 c0       	rjmp	.+6      	; 0xf36 <fputc+0x16>
     f30:	8f ef       	ldi	r24, 0xFF	; 255
     f32:	9f ef       	ldi	r25, 0xFF	; 255
     f34:	2c c0       	rjmp	.+88     	; 0xf8e <fputc+0x6e>
     f36:	22 ff       	sbrs	r18, 2
     f38:	16 c0       	rjmp	.+44     	; 0xf66 <fputc+0x46>
     f3a:	46 81       	ldd	r20, Z+6	; 0x06
     f3c:	57 81       	ldd	r21, Z+7	; 0x07
     f3e:	24 81       	ldd	r18, Z+4	; 0x04
     f40:	35 81       	ldd	r19, Z+5	; 0x05
     f42:	42 17       	cp	r20, r18
     f44:	53 07       	cpc	r21, r19
     f46:	44 f4       	brge	.+16     	; 0xf58 <fputc+0x38>
     f48:	a0 81       	ld	r26, Z
     f4a:	b1 81       	ldd	r27, Z+1	; 0x01
     f4c:	9d 01       	movw	r18, r26
     f4e:	2f 5f       	subi	r18, 0xFF	; 255
     f50:	3f 4f       	sbci	r19, 0xFF	; 255
     f52:	31 83       	std	Z+1, r19	; 0x01
     f54:	20 83       	st	Z, r18
     f56:	8c 93       	st	X, r24
     f58:	26 81       	ldd	r18, Z+6	; 0x06
     f5a:	37 81       	ldd	r19, Z+7	; 0x07
     f5c:	2f 5f       	subi	r18, 0xFF	; 255
     f5e:	3f 4f       	sbci	r19, 0xFF	; 255
     f60:	37 83       	std	Z+7, r19	; 0x07
     f62:	26 83       	std	Z+6, r18	; 0x06
     f64:	14 c0       	rjmp	.+40     	; 0xf8e <fputc+0x6e>
     f66:	8b 01       	movw	r16, r22
     f68:	ec 01       	movw	r28, r24
     f6a:	fb 01       	movw	r30, r22
     f6c:	00 84       	ldd	r0, Z+8	; 0x08
     f6e:	f1 85       	ldd	r31, Z+9	; 0x09
     f70:	e0 2d       	mov	r30, r0
     f72:	09 95       	icall
     f74:	89 2b       	or	r24, r25
     f76:	e1 f6       	brne	.-72     	; 0xf30 <fputc+0x10>
     f78:	d8 01       	movw	r26, r16
     f7a:	16 96       	adiw	r26, 0x06	; 6
     f7c:	8d 91       	ld	r24, X+
     f7e:	9c 91       	ld	r25, X
     f80:	17 97       	sbiw	r26, 0x07	; 7
     f82:	01 96       	adiw	r24, 0x01	; 1
     f84:	17 96       	adiw	r26, 0x07	; 7
     f86:	9c 93       	st	X, r25
     f88:	8e 93       	st	-X, r24
     f8a:	16 97       	sbiw	r26, 0x06	; 6
     f8c:	ce 01       	movw	r24, r28
     f8e:	df 91       	pop	r29
     f90:	cf 91       	pop	r28
     f92:	1f 91       	pop	r17
     f94:	0f 91       	pop	r16
     f96:	08 95       	ret

00000f98 <__ultoa_invert>:
     f98:	fa 01       	movw	r30, r20
     f9a:	aa 27       	eor	r26, r26
     f9c:	28 30       	cpi	r18, 0x08	; 8
     f9e:	51 f1       	breq	.+84     	; 0xff4 <__ultoa_invert+0x5c>
     fa0:	20 31       	cpi	r18, 0x10	; 16
     fa2:	81 f1       	breq	.+96     	; 0x1004 <__ultoa_invert+0x6c>
     fa4:	e8 94       	clt
     fa6:	6f 93       	push	r22
     fa8:	6e 7f       	andi	r22, 0xFE	; 254
     faa:	6e 5f       	subi	r22, 0xFE	; 254
     fac:	7f 4f       	sbci	r23, 0xFF	; 255
     fae:	8f 4f       	sbci	r24, 0xFF	; 255
     fb0:	9f 4f       	sbci	r25, 0xFF	; 255
     fb2:	af 4f       	sbci	r26, 0xFF	; 255
     fb4:	b1 e0       	ldi	r27, 0x01	; 1
     fb6:	3e d0       	rcall	.+124    	; 0x1034 <__ultoa_invert+0x9c>
     fb8:	b4 e0       	ldi	r27, 0x04	; 4
     fba:	3c d0       	rcall	.+120    	; 0x1034 <__ultoa_invert+0x9c>
     fbc:	67 0f       	add	r22, r23
     fbe:	78 1f       	adc	r23, r24
     fc0:	89 1f       	adc	r24, r25
     fc2:	9a 1f       	adc	r25, r26
     fc4:	a1 1d       	adc	r26, r1
     fc6:	68 0f       	add	r22, r24
     fc8:	79 1f       	adc	r23, r25
     fca:	8a 1f       	adc	r24, r26
     fcc:	91 1d       	adc	r25, r1
     fce:	a1 1d       	adc	r26, r1
     fd0:	6a 0f       	add	r22, r26
     fd2:	71 1d       	adc	r23, r1
     fd4:	81 1d       	adc	r24, r1
     fd6:	91 1d       	adc	r25, r1
     fd8:	a1 1d       	adc	r26, r1
     fda:	20 d0       	rcall	.+64     	; 0x101c <__ultoa_invert+0x84>
     fdc:	09 f4       	brne	.+2      	; 0xfe0 <__ultoa_invert+0x48>
     fde:	68 94       	set
     fe0:	3f 91       	pop	r19
     fe2:	2a e0       	ldi	r18, 0x0A	; 10
     fe4:	26 9f       	mul	r18, r22
     fe6:	11 24       	eor	r1, r1
     fe8:	30 19       	sub	r19, r0
     fea:	30 5d       	subi	r19, 0xD0	; 208
     fec:	31 93       	st	Z+, r19
     fee:	de f6       	brtc	.-74     	; 0xfa6 <__ultoa_invert+0xe>
     ff0:	cf 01       	movw	r24, r30
     ff2:	08 95       	ret
     ff4:	46 2f       	mov	r20, r22
     ff6:	47 70       	andi	r20, 0x07	; 7
     ff8:	40 5d       	subi	r20, 0xD0	; 208
     ffa:	41 93       	st	Z+, r20
     ffc:	b3 e0       	ldi	r27, 0x03	; 3
     ffe:	0f d0       	rcall	.+30     	; 0x101e <__ultoa_invert+0x86>
    1000:	c9 f7       	brne	.-14     	; 0xff4 <__ultoa_invert+0x5c>
    1002:	f6 cf       	rjmp	.-20     	; 0xff0 <__ultoa_invert+0x58>
    1004:	46 2f       	mov	r20, r22
    1006:	4f 70       	andi	r20, 0x0F	; 15
    1008:	40 5d       	subi	r20, 0xD0	; 208
    100a:	4a 33       	cpi	r20, 0x3A	; 58
    100c:	18 f0       	brcs	.+6      	; 0x1014 <__ultoa_invert+0x7c>
    100e:	49 5d       	subi	r20, 0xD9	; 217
    1010:	31 fd       	sbrc	r19, 1
    1012:	40 52       	subi	r20, 0x20	; 32
    1014:	41 93       	st	Z+, r20
    1016:	02 d0       	rcall	.+4      	; 0x101c <__ultoa_invert+0x84>
    1018:	a9 f7       	brne	.-22     	; 0x1004 <__ultoa_invert+0x6c>
    101a:	ea cf       	rjmp	.-44     	; 0xff0 <__ultoa_invert+0x58>
    101c:	b4 e0       	ldi	r27, 0x04	; 4
    101e:	a6 95       	lsr	r26
    1020:	97 95       	ror	r25
    1022:	87 95       	ror	r24
    1024:	77 95       	ror	r23
    1026:	67 95       	ror	r22
    1028:	ba 95       	dec	r27
    102a:	c9 f7       	brne	.-14     	; 0x101e <__ultoa_invert+0x86>
    102c:	00 97       	sbiw	r24, 0x00	; 0
    102e:	61 05       	cpc	r22, r1
    1030:	71 05       	cpc	r23, r1
    1032:	08 95       	ret
    1034:	9b 01       	movw	r18, r22
    1036:	ac 01       	movw	r20, r24
    1038:	0a 2e       	mov	r0, r26
    103a:	06 94       	lsr	r0
    103c:	57 95       	ror	r21
    103e:	47 95       	ror	r20
    1040:	37 95       	ror	r19
    1042:	27 95       	ror	r18
    1044:	ba 95       	dec	r27
    1046:	c9 f7       	brne	.-14     	; 0x103a <__ultoa_invert+0xa2>
    1048:	62 0f       	add	r22, r18
    104a:	73 1f       	adc	r23, r19
    104c:	84 1f       	adc	r24, r20
    104e:	95 1f       	adc	r25, r21
    1050:	a0 1d       	adc	r26, r0
    1052:	08 95       	ret

00001054 <__prologue_saves__>:
    1054:	2f 92       	push	r2
    1056:	3f 92       	push	r3
    1058:	4f 92       	push	r4
    105a:	5f 92       	push	r5
    105c:	6f 92       	push	r6
    105e:	7f 92       	push	r7
    1060:	8f 92       	push	r8
    1062:	9f 92       	push	r9
    1064:	af 92       	push	r10
    1066:	bf 92       	push	r11
    1068:	cf 92       	push	r12
    106a:	df 92       	push	r13
    106c:	ef 92       	push	r14
    106e:	ff 92       	push	r15
    1070:	0f 93       	push	r16
    1072:	1f 93       	push	r17
    1074:	cf 93       	push	r28
    1076:	df 93       	push	r29
    1078:	cd b7       	in	r28, 0x3d	; 61
    107a:	de b7       	in	r29, 0x3e	; 62
    107c:	ca 1b       	sub	r28, r26
    107e:	db 0b       	sbc	r29, r27
    1080:	0f b6       	in	r0, 0x3f	; 63
    1082:	f8 94       	cli
    1084:	de bf       	out	0x3e, r29	; 62
    1086:	0f be       	out	0x3f, r0	; 63
    1088:	cd bf       	out	0x3d, r28	; 61
    108a:	09 94       	ijmp

0000108c <__epilogue_restores__>:
    108c:	2a 88       	ldd	r2, Y+18	; 0x12
    108e:	39 88       	ldd	r3, Y+17	; 0x11
    1090:	48 88       	ldd	r4, Y+16	; 0x10
    1092:	5f 84       	ldd	r5, Y+15	; 0x0f
    1094:	6e 84       	ldd	r6, Y+14	; 0x0e
    1096:	7d 84       	ldd	r7, Y+13	; 0x0d
    1098:	8c 84       	ldd	r8, Y+12	; 0x0c
    109a:	9b 84       	ldd	r9, Y+11	; 0x0b
    109c:	aa 84       	ldd	r10, Y+10	; 0x0a
    109e:	b9 84       	ldd	r11, Y+9	; 0x09
    10a0:	c8 84       	ldd	r12, Y+8	; 0x08
    10a2:	df 80       	ldd	r13, Y+7	; 0x07
    10a4:	ee 80       	ldd	r14, Y+6	; 0x06
    10a6:	fd 80       	ldd	r15, Y+5	; 0x05
    10a8:	0c 81       	ldd	r16, Y+4	; 0x04
    10aa:	1b 81       	ldd	r17, Y+3	; 0x03
    10ac:	aa 81       	ldd	r26, Y+2	; 0x02
    10ae:	b9 81       	ldd	r27, Y+1	; 0x01
    10b0:	ce 0f       	add	r28, r30
    10b2:	d1 1d       	adc	r29, r1
    10b4:	0f b6       	in	r0, 0x3f	; 63
    10b6:	f8 94       	cli
    10b8:	de bf       	out	0x3e, r29	; 62
    10ba:	0f be       	out	0x3f, r0	; 63
    10bc:	cd bf       	out	0x3d, r28	; 61
    10be:	ed 01       	movw	r28, r26
    10c0:	08 95       	ret

000010c2 <_exit>:
    10c2:	f8 94       	cli

000010c4 <__stop_program>:
    10c4:	ff cf       	rjmp	.-2      	; 0x10c4 <__stop_program>
